---
triple:          'arm64-apple-darwin'
binary-path:     find_sin.o
relocations:
  - { offset: 0x4E944, size: 0x8, addend: 0x0, symName: __ZN10rododendrs9_g_randomE, symObjAddr: 0x5A480, symBinAddr: 0x1000700F8, symSize: 0x0 }
  - { offset: 0x63207, size: 0x8, addend: 0x0, symName: __ZN5boost6system6detail18generic_cat_holderIvE8instanceE, symObjAddr: 0x4F688, symBinAddr: 0x10006F3E8, symSize: 0x0 }
  - { offset: 0x63241, size: 0x8, addend: 0x0, symName: __ZN5boost6system6detail17system_cat_holderIvE8instanceE, symObjAddr: 0x4F650, symBinAddr: 0x10006F3B0, symSize: 0x0 }
  - { offset: 0x63D7D, size: 0x8, addend: 0x0, symName: __ZN5boost4json5array6empty_E, symObjAddr: 0x50AC80, symBinAddr: 0x100070D50, symSize: 0x0 }
  - { offset: 0x63D9B, size: 0x8, addend: 0x0, symName: __ZN5boost4json6detail19error_code_categoryE, symObjAddr: 0x5A408, symBinAddr: 0x100070080, symSize: 0x0 }
  - { offset: 0x63DAD, size: 0x8, addend: 0x0, symName: __ZN5boost4json6detail24error_condition_categoryE, symObjAddr: 0x5A3D0, symBinAddr: 0x100070048, symSize: 0x0 }
  - { offset: 0x63DC4, size: 0x8, addend: 0x0, symName: __ZN5boost4json6object6empty_E, symObjAddr: 0x50AC70, symBinAddr: 0x100070D40, symSize: 0x0 }
  - { offset: 0x63E33, size: 0x8, addend: 0x0, symName: __ZN5boost4json12_GLOBAL__N_116serialize_xallocE, symObjAddr: 0x50AD58, symBinAddr: 0x100070E28, symSize: 0x0 }
  - { offset: 0x63E56, size: 0x8, addend: 0x0, symName: __ZN5boost4json12_GLOBAL__N_118parse_depth_xallocE, symObjAddr: 0x50AD30, symBinAddr: 0x100070E00, symSize: 0x0 }
  - { offset: 0x63E66, size: 0x8, addend: 0x0, symName: __ZN5boost4json12_GLOBAL__N_118parse_flags_xallocE, symObjAddr: 0x50AD2C, symBinAddr: 0x100070DFC, symSize: 0x0 }
  - { offset: 0x63E7E, size: 0x8, addend: 0x0, symName: __ZN5boost4json14key_value_pair6empty_E, symObjAddr: 0x57938, symBinAddr: 0x100058AA8, symSize: 0x0 }
  - { offset: 0x63E9E, size: 0x8, addend: 0x0, symName: __ZN5boost4json6detail16default_resource9instance_E, symObjAddr: 0x5A3C0, symBinAddr: 0x100070038, symSize: 0x0 }
  - { offset: 0x63F00, size: 0x8, addend: 0x0, symName: __ZN5boost4json6detail8charconv6detail10fast_float27binary_format_lookup_tablesIdvE13powers_of_tenE, symObjAddr: 0x55118, symBinAddr: 0x100056288, symSize: 0x0 }
  - { offset: 0x63F22, size: 0x8, addend: 0x0, symName: __ZN5boost4json6detail8charconv6detail10fast_float27binary_format_lookup_tablesIdvE12max_mantissaE, symObjAddr: 0x55058, symBinAddr: 0x1000561C8, symSize: 0x0 }
  - { offset: 0x640D2, size: 0x8, addend: 0x0, symName: __ZN5boost4json6detail8charconv6detail10fast_float15powers_templateIvE17power_of_five_128E, symObjAddr: 0x527A8, symBinAddr: 0x100053918, symSize: 0x0 }
  - { offset: 0x6410D, size: 0x8, addend: 0x0, symName: __ZN5boost4json6detail8charconv6detail10fast_float11pow5_tablesIvE16small_power_of_5E, symObjAddr: 0x526C8, symBinAddr: 0x100053838, symSize: 0x0 }
  - { offset: 0x6412F, size: 0x8, addend: 0x0, symName: __ZN5boost4json6detail8charconv6detail10fast_float11pow5_tablesIvE16large_power_of_5E, symObjAddr: 0x526A0, symBinAddr: 0x100053810, symSize: 0x0 }
  - { offset: 0x6435B, size: 0x8, addend: 0x0, symName: __ZN7iestadeL14DEFAULT_STRINGE, symObjAddr: 0x5A398, symBinAddr: 0x100070010, symSize: 0x0 }
  - { offset: 0x64B0D, size: 0x8, addend: 0x0, symName: __ZStL8__ioinit, symObjAddr: 0x50AD28, symBinAddr: 0x100070DF8, symSize: 0x0 }
  - { offset: 0x673EA, size: 0x8, addend: 0x0, symName: __ZL11CONFIG_PATH, symObjAddr: 0x50AD08, symBinAddr: 0x100070DD8, symSize: 0x0 }
  - { offset: 0x67401, size: 0x8, addend: 0x0, symName: _g_ts, symObjAddr: 0x50AAC0, symBinAddr: 0x100070B90, symSize: 0x0 }
  - { offset: 0x67418, size: 0x8, addend: 0x0, symName: __ZL18g_reports_dir_name, symObjAddr: 0x50ACE8, symBinAddr: 0x100070DB8, symSize: 0x0 }
  - { offset: 0x6742F, size: 0x8, addend: 0x0, symName: __ZL29g_reports_neurons_file_prefix, symObjAddr: 0x50ACC8, symBinAddr: 0x100070D98, symSize: 0x0 }
  - { offset: 0x67446, size: 0x8, addend: 0x0, symName: __ZL33g_reports_connections_file_prefix, symObjAddr: 0x50ACA8, symBinAddr: 0x100070D78, symSize: 0x0 }
  - { offset: 0x6745D, size: 0x8, addend: 0x0, symName: __ZL29g_reports_results_file_prefix, symObjAddr: 0x50AC88, symBinAddr: 0x100070D58, symSize: 0x0 }
  - { offset: 0x67474, size: 0x8, addend: 0x0, symName: _g_training_data, symObjAddr: 0x50AA70, symBinAddr: 0x100070B40, symSize: 0x0 }
  - { offset: 0x6748B, size: 0x8, addend: 0x0, symName: _g_training_data_min, symObjAddr: 0x50AA60, symBinAddr: 0x100070B30, symSize: 0x0 }
  - { offset: 0x674A2, size: 0x8, addend: 0x0, symName: _g_training_data_max, symObjAddr: 0x50AA58, symBinAddr: 0x100070B28, symSize: 0x0 }
  - { offset: 0x674B9, size: 0x8, addend: 0x0, symName: _g_training_data_n, symObjAddr: 0x50AA50, symBinAddr: 0x100070B20, symSize: 0x0 }
  - { offset: 0x674D0, size: 0x8, addend: 0x0, symName: _g_training_update_n, symObjAddr: 0x50AA48, symBinAddr: 0x100070B18, symSize: 0x0 }
  - { offset: 0x674E7, size: 0x8, addend: 0x0, symName: _g_training_update_period, symObjAddr: 0x50AA40, symBinAddr: 0x100070B10, symSize: 0x0 }
  - { offset: 0x686C6, size: 0x8, addend: 0x0, symName: __ZNK5boost10wrapexceptISt9bad_allocE7rethrowEv, symObjAddr: 0x4D0D0, symBinAddr: 0x1000483A4, symSize: 0xC0 }
  - { offset: 0x687DB, size: 0x8, addend: 0x0, symName: __ZNK5boost10wrapexceptISt9bad_allocE5cloneEv, symObjAddr: 0x2C80, symBinAddr: 0x100003FE0, symSize: 0x250 }
  - { offset: 0x68BE3, size: 0x8, addend: 0x0, symName: __ZNK5boost10wrapexceptINS_6system12system_errorEE7rethrowEv, symObjAddr: 0x4D190, symBinAddr: 0x100048464, symSize: 0xF0 }
  - { offset: 0x68D24, size: 0x8, addend: 0x0, symName: __ZNK5boost10wrapexceptINS_6system12system_errorEE5cloneEv, symObjAddr: 0x1A00, symBinAddr: 0x100002D60, symSize: 0x260 }
  - { offset: 0x691B4, size: 0x8, addend: 0x0, symName: __ZN5boost6system6detail12std_categoryD0Ev, symObjAddr: 0x880, symBinAddr: 0x100001BE0, symSize: 0x40 }
  - { offset: 0x691D6, size: 0x8, addend: 0x0, symName: __ZN5boost6system6detail12std_categoryD0Ev, symObjAddr: 0x880, symBinAddr: 0x100001BE0, symSize: 0x40 }
  - { offset: 0x691FF, size: 0x8, addend: 0x0, symName: __ZN5boost6system6detail12std_categoryD1Ev, symObjAddr: 0x86C, symBinAddr: 0x100001BCC, symSize: 0x14 }
  - { offset: 0x69C89, size: 0x8, addend: 0x0, symName: __ZZN5boost4json6detail10sbo_bufferILm34EE4growEmE3loc, symObjAddr: 0x4DC40, symBinAddr: 0x10006D9A0, symSize: 0x0 }
  - { offset: 0x6A5CD, size: 0x8, addend: 0x0, symName: __ZZN5boost4json12basic_parserINS0_6detail7handlerEE12parse_numberILb0ELc0ELNS0_16number_precisionE2EEEPKcS8_St17integral_constantIbXT_EES9_IcXT0_EES9_IS6_XT1_EEE3loc_0, symObjAddr: 0x4DD30, symBinAddr: 0x10006DA90, symSize: 0x0 }
  - { offset: 0x6A60E, size: 0x8, addend: 0x0, symName: __ZZN5boost4json12basic_parserINS0_6detail7handlerEE12parse_numberILb0ELc0ELNS0_16number_precisionE2EEEPKcS8_St17integral_constantIbXT_EES9_IcXT0_EES9_IS6_XT1_EEE3loc_1, symObjAddr: 0x4DD18, symBinAddr: 0x10006DA78, symSize: 0x0 }
  - { offset: 0x6A660, size: 0x8, addend: 0x0, symName: __ZZN5boost4json12basic_parserINS0_6detail7handlerEE12parse_numberILb0ELc0ELNS0_16number_precisionE2EEEPKcS8_St17integral_constantIbXT_EES9_IcXT0_EES9_IS6_XT1_EEE3loc_2, symObjAddr: 0x4DD00, symBinAddr: 0x10006DA60, symSize: 0x0 }
  - { offset: 0x6A690, size: 0x8, addend: 0x0, symName: __ZZN5boost4json12basic_parserINS0_6detail7handlerEE12parse_numberILb0ELc0ELNS0_16number_precisionE2EEEPKcS8_St17integral_constantIbXT_EES9_IcXT0_EES9_IS6_XT1_EEE3loc_3, symObjAddr: 0x4DCE8, symBinAddr: 0x10006DA48, symSize: 0x0 }
  - { offset: 0x6A6E2, size: 0x8, addend: 0x0, symName: __ZZN5boost4json12basic_parserINS0_6detail7handlerEE12parse_numberILb0ELc0ELNS0_16number_precisionE2EEEPKcS8_St17integral_constantIbXT_EES9_IcXT0_EES9_IS6_XT1_EEE3loc_4, symObjAddr: 0x4DCD0, symBinAddr: 0x10006DA30, symSize: 0x0 }
  - { offset: 0x6A701, size: 0x8, addend: 0x0, symName: __ZZN5boost4json12basic_parserINS0_6detail7handlerEE12parse_numberILb0ELc0ELNS0_16number_precisionE2EEEPKcS8_St17integral_constantIbXT_EES9_IcXT0_EES9_IS6_XT1_EEE3loc_5, symObjAddr: 0x4DCB8, symBinAddr: 0x10006DA18, symSize: 0x0 }
  - { offset: 0x6A757, size: 0x8, addend: 0x0, symName: __ZZN5boost4json12basic_parserINS0_6detail7handlerEE12parse_numberILb0ELc0ELNS0_16number_precisionE2EEEPKcS8_St17integral_constantIbXT_EES9_IcXT0_EES9_IS6_XT1_EEE3loc_7, symObjAddr: 0x4DCA0, symBinAddr: 0x10006DA00, symSize: 0x0 }
  - { offset: 0x6A776, size: 0x8, addend: 0x0, symName: __ZZN5boost4json12basic_parserINS0_6detail7handlerEE12parse_numberILb0ELc0ELNS0_16number_precisionE2EEEPKcS8_St17integral_constantIbXT_EES9_IcXT0_EES9_IS6_XT1_EEE3loc_8, symObjAddr: 0x4DC88, symBinAddr: 0x10006D9E8, symSize: 0x0 }
  - { offset: 0x6A7A7, size: 0x8, addend: 0x0, symName: __ZZN5boost4json12basic_parserINS0_6detail7handlerEE12parse_numberILb0ELc0ELNS0_16number_precisionE2EEEPKcS8_St17integral_constantIbXT_EES9_IcXT0_EES9_IS6_XT1_EEE3loc_9, symObjAddr: 0x4DC70, symBinAddr: 0x10006D9D0, symSize: 0x0 }
  - { offset: 0x6A7C6, size: 0x8, addend: 0x0, symName: __ZZN5boost4json12basic_parserINS0_6detail7handlerEE12parse_numberILb0ELc0ELNS0_16number_precisionE2EEEPKcS8_St17integral_constantIbXT_EES9_IcXT0_EES9_IS6_XT1_EEE3loc__10_, symObjAddr: 0x4DC58, symBinAddr: 0x10006D9B8, symSize: 0x0 }
  - { offset: 0x6A9D8, size: 0x8, addend: 0x0, symName: __ZZN5boost4json12basic_parserINS0_6detail7handlerEE12parse_numberILb0ELc0ELNS0_16number_precisionE1EEEPKcS8_St17integral_constantIbXT_EES9_IcXT0_EES9_IS6_XT1_EEE3loc_0, symObjAddr: 0x4DE38, symBinAddr: 0x10006DB98, symSize: 0x0 }
  - { offset: 0x6AA19, size: 0x8, addend: 0x0, symName: __ZZN5boost4json12basic_parserINS0_6detail7handlerEE12parse_numberILb0ELc0ELNS0_16number_precisionE1EEEPKcS8_St17integral_constantIbXT_EES9_IcXT0_EES9_IS6_XT1_EEE3loc_1, symObjAddr: 0x4DE20, symBinAddr: 0x10006DB80, symSize: 0x0 }
  - { offset: 0x6AA6B, size: 0x8, addend: 0x0, symName: __ZZN5boost4json12basic_parserINS0_6detail7handlerEE12parse_numberILb0ELc0ELNS0_16number_precisionE1EEEPKcS8_St17integral_constantIbXT_EES9_IcXT0_EES9_IS6_XT1_EEE3loc_2, symObjAddr: 0x4DE08, symBinAddr: 0x10006DB68, symSize: 0x0 }
  - { offset: 0x6AA9B, size: 0x8, addend: 0x0, symName: __ZZN5boost4json12basic_parserINS0_6detail7handlerEE12parse_numberILb0ELc0ELNS0_16number_precisionE1EEEPKcS8_St17integral_constantIbXT_EES9_IcXT0_EES9_IS6_XT1_EEE3loc_3, symObjAddr: 0x4DDF0, symBinAddr: 0x10006DB50, symSize: 0x0 }
  - { offset: 0x6AAED, size: 0x8, addend: 0x0, symName: __ZZN5boost4json12basic_parserINS0_6detail7handlerEE12parse_numberILb0ELc0ELNS0_16number_precisionE1EEEPKcS8_St17integral_constantIbXT_EES9_IcXT0_EES9_IS6_XT1_EEE3loc_4, symObjAddr: 0x4DDD8, symBinAddr: 0x10006DB38, symSize: 0x0 }
  - { offset: 0x6AB0C, size: 0x8, addend: 0x0, symName: __ZZN5boost4json12basic_parserINS0_6detail7handlerEE12parse_numberILb0ELc0ELNS0_16number_precisionE1EEEPKcS8_St17integral_constantIbXT_EES9_IcXT0_EES9_IS6_XT1_EEE3loc_5, symObjAddr: 0x4DDC0, symBinAddr: 0x10006DB20, symSize: 0x0 }
  - { offset: 0x6AB3C, size: 0x8, addend: 0x0, symName: __ZZN5boost4json12basic_parserINS0_6detail7handlerEE12parse_numberILb0ELc0ELNS0_16number_precisionE1EEEPKcS8_St17integral_constantIbXT_EES9_IcXT0_EES9_IS6_XT1_EEE3loc_6, symObjAddr: 0x4DDA8, symBinAddr: 0x10006DB08, symSize: 0x0 }
  - { offset: 0x6AB6C, size: 0x8, addend: 0x0, symName: __ZZN5boost4json12basic_parserINS0_6detail7handlerEE12parse_numberILb0ELc0ELNS0_16number_precisionE1EEEPKcS8_St17integral_constantIbXT_EES9_IcXT0_EES9_IS6_XT1_EEE3loc_7, symObjAddr: 0x4DD90, symBinAddr: 0x10006DAF0, symSize: 0x0 }
  - { offset: 0x6AB8B, size: 0x8, addend: 0x0, symName: __ZZN5boost4json12basic_parserINS0_6detail7handlerEE12parse_numberILb0ELc0ELNS0_16number_precisionE1EEEPKcS8_St17integral_constantIbXT_EES9_IcXT0_EES9_IS6_XT1_EEE3loc_8, symObjAddr: 0x4DD78, symBinAddr: 0x10006DAD8, symSize: 0x0 }
  - { offset: 0x6ABBC, size: 0x8, addend: 0x0, symName: __ZZN5boost4json12basic_parserINS0_6detail7handlerEE12parse_numberILb0ELc0ELNS0_16number_precisionE1EEEPKcS8_St17integral_constantIbXT_EES9_IcXT0_EES9_IS6_XT1_EEE3loc_9, symObjAddr: 0x4DD60, symBinAddr: 0x10006DAC0, symSize: 0x0 }
  - { offset: 0x6ABDB, size: 0x8, addend: 0x0, symName: __ZZN5boost4json12basic_parserINS0_6detail7handlerEE12parse_numberILb0ELc0ELNS0_16number_precisionE1EEEPKcS8_St17integral_constantIbXT_EES9_IcXT0_EES9_IS6_XT1_EEE3loc__10_, symObjAddr: 0x4DD48, symBinAddr: 0x10006DAA8, symSize: 0x0 }
  - { offset: 0x6AE07, size: 0x8, addend: 0x0, symName: __ZZN5boost4json12basic_parserINS0_6detail7handlerEE12parse_numberILb0ELc0ELNS0_16number_precisionE0EEEPKcS8_St17integral_constantIbXT_EES9_IcXT0_EES9_IS6_XT1_EEE3loc_0, symObjAddr: 0x4DF40, symBinAddr: 0x10006DCA0, symSize: 0x0 }
  - { offset: 0x6AE48, size: 0x8, addend: 0x0, symName: __ZZN5boost4json12basic_parserINS0_6detail7handlerEE12parse_numberILb0ELc0ELNS0_16number_precisionE0EEEPKcS8_St17integral_constantIbXT_EES9_IcXT0_EES9_IS6_XT1_EEE3loc_1, symObjAddr: 0x4DF28, symBinAddr: 0x10006DC88, symSize: 0x0 }
  - { offset: 0x6AE9A, size: 0x8, addend: 0x0, symName: __ZZN5boost4json12basic_parserINS0_6detail7handlerEE12parse_numberILb0ELc0ELNS0_16number_precisionE0EEEPKcS8_St17integral_constantIbXT_EES9_IcXT0_EES9_IS6_XT1_EEE3loc_2, symObjAddr: 0x4DF10, symBinAddr: 0x10006DC70, symSize: 0x0 }
  - { offset: 0x6AECA, size: 0x8, addend: 0x0, symName: __ZZN5boost4json12basic_parserINS0_6detail7handlerEE12parse_numberILb0ELc0ELNS0_16number_precisionE0EEEPKcS8_St17integral_constantIbXT_EES9_IcXT0_EES9_IS6_XT1_EEE3loc_3, symObjAddr: 0x4DEF8, symBinAddr: 0x10006DC58, symSize: 0x0 }
  - { offset: 0x6AF1C, size: 0x8, addend: 0x0, symName: __ZZN5boost4json12basic_parserINS0_6detail7handlerEE12parse_numberILb0ELc0ELNS0_16number_precisionE0EEEPKcS8_St17integral_constantIbXT_EES9_IcXT0_EES9_IS6_XT1_EEE3loc_4, symObjAddr: 0x4DEE0, symBinAddr: 0x10006DC40, symSize: 0x0 }
  - { offset: 0x6AF3B, size: 0x8, addend: 0x0, symName: __ZZN5boost4json12basic_parserINS0_6detail7handlerEE12parse_numberILb0ELc0ELNS0_16number_precisionE0EEEPKcS8_St17integral_constantIbXT_EES9_IcXT0_EES9_IS6_XT1_EEE3loc_5, symObjAddr: 0x4DEC8, symBinAddr: 0x10006DC28, symSize: 0x0 }
  - { offset: 0x6AF6B, size: 0x8, addend: 0x0, symName: __ZZN5boost4json12basic_parserINS0_6detail7handlerEE12parse_numberILb0ELc0ELNS0_16number_precisionE0EEEPKcS8_St17integral_constantIbXT_EES9_IcXT0_EES9_IS6_XT1_EEE3loc_6, symObjAddr: 0x4DEB0, symBinAddr: 0x10006DC10, symSize: 0x0 }
  - { offset: 0x6AF9B, size: 0x8, addend: 0x0, symName: __ZZN5boost4json12basic_parserINS0_6detail7handlerEE12parse_numberILb0ELc0ELNS0_16number_precisionE0EEEPKcS8_St17integral_constantIbXT_EES9_IcXT0_EES9_IS6_XT1_EEE3loc_7, symObjAddr: 0x4DE98, symBinAddr: 0x10006DBF8, symSize: 0x0 }
  - { offset: 0x6AFBA, size: 0x8, addend: 0x0, symName: __ZZN5boost4json12basic_parserINS0_6detail7handlerEE12parse_numberILb0ELc0ELNS0_16number_precisionE0EEEPKcS8_St17integral_constantIbXT_EES9_IcXT0_EES9_IS6_XT1_EEE3loc_8, symObjAddr: 0x4DE80, symBinAddr: 0x10006DBE0, symSize: 0x0 }
  - { offset: 0x6AFEB, size: 0x8, addend: 0x0, symName: __ZZN5boost4json12basic_parserINS0_6detail7handlerEE12parse_numberILb0ELc0ELNS0_16number_precisionE0EEEPKcS8_St17integral_constantIbXT_EES9_IcXT0_EES9_IS6_XT1_EEE3loc_9, symObjAddr: 0x4DE68, symBinAddr: 0x10006DBC8, symSize: 0x0 }
  - { offset: 0x6B00A, size: 0x8, addend: 0x0, symName: __ZZN5boost4json12basic_parserINS0_6detail7handlerEE12parse_numberILb0ELc0ELNS0_16number_precisionE0EEEPKcS8_St17integral_constantIbXT_EES9_IcXT0_EES9_IS6_XT1_EEE3loc__10_, symObjAddr: 0x4DE50, symBinAddr: 0x10006DBB0, symSize: 0x0 }
  - { offset: 0x6B064, size: 0x8, addend: 0x0, symName: __ZN5boost4json12basic_parserINS0_6detail7handlerEE7suspendEPKcNS4_5stateERKNS4_6numberE, symObjAddr: 0x37020, symBinAddr: 0x100038380, symSize: 0xE0 }
  - { offset: 0x6B1F4, size: 0x8, addend: 0x0, symName: __ZN5boost4json12basic_parserINS0_6detail7handlerEE13maybe_suspendEPKcNS4_5stateERKNS4_6numberE, symObjAddr: 0x36F30, symBinAddr: 0x100038290, symSize: 0xF0 }
  - { offset: 0x6B38B, size: 0x8, addend: 0x0, symName: __ZN5boost4json6detail5stack4pushINS0_12basic_parserINS1_7handlerEE5stateEEEvRKT_, symObjAddr: 0x36EE0, symBinAddr: 0x100038240, symSize: 0x50 }
  - { offset: 0x6B4D8, size: 0x8, addend: 0x0, symName: __ZZN5boost4json12basic_parserINS0_6detail7handlerEE13parse_literalILi4EEEPKcS7_St17integral_constantIiXT_EEE3loc, symObjAddr: 0x4DF70, symBinAddr: 0x10006DCD0, symSize: 0x0 }
  - { offset: 0x6B4F8, size: 0x8, addend: 0x0, symName: __ZZN5boost4json12basic_parserINS0_6detail7handlerEE13parse_literalILi4EEEPKcS7_St17integral_constantIiXT_EEE3loc_0, symObjAddr: 0x4DF58, symBinAddr: 0x10006DCB8, symSize: 0x0 }
  - { offset: 0x6C039, size: 0x8, addend: 0x0, symName: __ZZN5boost4json12basic_parserINS0_6detail7handlerEE15parse_unescapedILb0ELb1EEEPKcS7_St17integral_constantIbXT_EES8_IbXT0_EEbE3loc, symObjAddr: 0x4DFB8, symBinAddr: 0x10006DD18, symSize: 0x0 }
  - { offset: 0x6C07E, size: 0x8, addend: 0x0, symName: __ZZN5boost4json12basic_parserINS0_6detail7handlerEE15parse_unescapedILb0ELb1EEEPKcS7_St17integral_constantIbXT_EES8_IbXT0_EEbE3loc_2, symObjAddr: 0x4DF88, symBinAddr: 0x10006DCE8, symSize: 0x0 }
  - { offset: 0x6C09C, size: 0x8, addend: 0x0, symName: __ZZN5boost4json12basic_parserINS0_6detail7handlerEE15parse_unescapedILb0ELb1EEEPKcS7_St17integral_constantIbXT_EES8_IbXT0_EEbE3loc_1, symObjAddr: 0x4DFA0, symBinAddr: 0x10006DD00, symSize: 0x0 }
  - { offset: 0x6C2E2, size: 0x8, addend: 0x0, symName: __ZZN5boost4json12basic_parserINS0_6detail7handlerEE12parse_numberILb1ELc43ELNS0_16number_precisionE2EEEPKcS8_St17integral_constantIbXT_EES9_IcXT0_EES9_IS6_XT1_EEE3loc_0, symObjAddr: 0x4E060, symBinAddr: 0x10006DDC0, symSize: 0x0 }
  - { offset: 0x6C36B, size: 0x8, addend: 0x0, symName: __ZZN5boost4json12basic_parserINS0_6detail7handlerEE12parse_numberILb1ELc43ELNS0_16number_precisionE2EEEPKcS8_St17integral_constantIbXT_EES9_IcXT0_EES9_IS6_XT1_EEE3loc_2, symObjAddr: 0x4E048, symBinAddr: 0x10006DDA8, symSize: 0x0 }
  - { offset: 0x6C39B, size: 0x8, addend: 0x0, symName: __ZZN5boost4json12basic_parserINS0_6detail7handlerEE12parse_numberILb1ELc43ELNS0_16number_precisionE2EEEPKcS8_St17integral_constantIbXT_EES9_IcXT0_EES9_IS6_XT1_EEE3loc_3, symObjAddr: 0x4E030, symBinAddr: 0x10006DD90, symSize: 0x0 }
  - { offset: 0x6C3ED, size: 0x8, addend: 0x0, symName: __ZZN5boost4json12basic_parserINS0_6detail7handlerEE12parse_numberILb1ELc43ELNS0_16number_precisionE2EEEPKcS8_St17integral_constantIbXT_EES9_IcXT0_EES9_IS6_XT1_EEE3loc_4, symObjAddr: 0x4E018, symBinAddr: 0x10006DD78, symSize: 0x0 }
  - { offset: 0x6C40C, size: 0x8, addend: 0x0, symName: __ZZN5boost4json12basic_parserINS0_6detail7handlerEE12parse_numberILb1ELc43ELNS0_16number_precisionE2EEEPKcS8_St17integral_constantIbXT_EES9_IcXT0_EES9_IS6_XT1_EEE3loc_5, symObjAddr: 0x4E000, symBinAddr: 0x10006DD60, symSize: 0x0 }
  - { offset: 0x6C462, size: 0x8, addend: 0x0, symName: __ZZN5boost4json12basic_parserINS0_6detail7handlerEE12parse_numberILb1ELc43ELNS0_16number_precisionE2EEEPKcS8_St17integral_constantIbXT_EES9_IcXT0_EES9_IS6_XT1_EEE3loc_7, symObjAddr: 0x4DFE8, symBinAddr: 0x10006DD48, symSize: 0x0 }
  - { offset: 0x6C481, size: 0x8, addend: 0x0, symName: __ZZN5boost4json12basic_parserINS0_6detail7handlerEE12parse_numberILb1ELc43ELNS0_16number_precisionE2EEEPKcS8_St17integral_constantIbXT_EES9_IcXT0_EES9_IS6_XT1_EEE3loc_8, symObjAddr: 0x4DFD0, symBinAddr: 0x10006DD30, symSize: 0x0 }
  - { offset: 0x6C6BC, size: 0x8, addend: 0x0, symName: __ZZN5boost4json12basic_parserINS0_6detail7handlerEE12parse_numberILb1ELc43ELNS0_16number_precisionE1EEEPKcS8_St17integral_constantIbXT_EES9_IcXT0_EES9_IS6_XT1_EEE3loc_0, symObjAddr: 0x4E150, symBinAddr: 0x10006DEB0, symSize: 0x0 }
  - { offset: 0x6C745, size: 0x8, addend: 0x0, symName: __ZZN5boost4json12basic_parserINS0_6detail7handlerEE12parse_numberILb1ELc43ELNS0_16number_precisionE1EEEPKcS8_St17integral_constantIbXT_EES9_IcXT0_EES9_IS6_XT1_EEE3loc_2, symObjAddr: 0x4E138, symBinAddr: 0x10006DE98, symSize: 0x0 }
  - { offset: 0x6C775, size: 0x8, addend: 0x0, symName: __ZZN5boost4json12basic_parserINS0_6detail7handlerEE12parse_numberILb1ELc43ELNS0_16number_precisionE1EEEPKcS8_St17integral_constantIbXT_EES9_IcXT0_EES9_IS6_XT1_EEE3loc_3, symObjAddr: 0x4E120, symBinAddr: 0x10006DE80, symSize: 0x0 }
  - { offset: 0x6C7C7, size: 0x8, addend: 0x0, symName: __ZZN5boost4json12basic_parserINS0_6detail7handlerEE12parse_numberILb1ELc43ELNS0_16number_precisionE1EEEPKcS8_St17integral_constantIbXT_EES9_IcXT0_EES9_IS6_XT1_EEE3loc_4, symObjAddr: 0x4E108, symBinAddr: 0x10006DE68, symSize: 0x0 }
  - { offset: 0x6C7E6, size: 0x8, addend: 0x0, symName: __ZZN5boost4json12basic_parserINS0_6detail7handlerEE12parse_numberILb1ELc43ELNS0_16number_precisionE1EEEPKcS8_St17integral_constantIbXT_EES9_IcXT0_EES9_IS6_XT1_EEE3loc_5, symObjAddr: 0x4E0F0, symBinAddr: 0x10006DE50, symSize: 0x0 }
  - { offset: 0x6C816, size: 0x8, addend: 0x0, symName: __ZZN5boost4json12basic_parserINS0_6detail7handlerEE12parse_numberILb1ELc43ELNS0_16number_precisionE1EEEPKcS8_St17integral_constantIbXT_EES9_IcXT0_EES9_IS6_XT1_EEE3loc_6, symObjAddr: 0x4E0D8, symBinAddr: 0x10006DE38, symSize: 0x0 }
  - { offset: 0x6C846, size: 0x8, addend: 0x0, symName: __ZZN5boost4json12basic_parserINS0_6detail7handlerEE12parse_numberILb1ELc43ELNS0_16number_precisionE1EEEPKcS8_St17integral_constantIbXT_EES9_IcXT0_EES9_IS6_XT1_EEE3loc_7, symObjAddr: 0x4E0C0, symBinAddr: 0x10006DE20, symSize: 0x0 }
  - { offset: 0x6C865, size: 0x8, addend: 0x0, symName: __ZZN5boost4json12basic_parserINS0_6detail7handlerEE12parse_numberILb1ELc43ELNS0_16number_precisionE1EEEPKcS8_St17integral_constantIbXT_EES9_IcXT0_EES9_IS6_XT1_EEE3loc_8, symObjAddr: 0x4E0A8, symBinAddr: 0x10006DE08, symSize: 0x0 }
  - { offset: 0x6C896, size: 0x8, addend: 0x0, symName: __ZZN5boost4json12basic_parserINS0_6detail7handlerEE12parse_numberILb1ELc43ELNS0_16number_precisionE1EEEPKcS8_St17integral_constantIbXT_EES9_IcXT0_EES9_IS6_XT1_EEE3loc_9, symObjAddr: 0x4E090, symBinAddr: 0x10006DDF0, symSize: 0x0 }
  - { offset: 0x6C8B5, size: 0x8, addend: 0x0, symName: __ZZN5boost4json12basic_parserINS0_6detail7handlerEE12parse_numberILb1ELc43ELNS0_16number_precisionE1EEEPKcS8_St17integral_constantIbXT_EES9_IcXT0_EES9_IS6_XT1_EEE3loc__10_, symObjAddr: 0x4E078, symBinAddr: 0x10006DDD8, symSize: 0x0 }
  - { offset: 0x6CAE1, size: 0x8, addend: 0x0, symName: __ZZN5boost4json12basic_parserINS0_6detail7handlerEE12parse_numberILb1ELc43ELNS0_16number_precisionE0EEEPKcS8_St17integral_constantIbXT_EES9_IcXT0_EES9_IS6_XT1_EEE3loc_0, symObjAddr: 0x4E240, symBinAddr: 0x10006DFA0, symSize: 0x0 }
  - { offset: 0x6CB6A, size: 0x8, addend: 0x0, symName: __ZZN5boost4json12basic_parserINS0_6detail7handlerEE12parse_numberILb1ELc43ELNS0_16number_precisionE0EEEPKcS8_St17integral_constantIbXT_EES9_IcXT0_EES9_IS6_XT1_EEE3loc_2, symObjAddr: 0x4E228, symBinAddr: 0x10006DF88, symSize: 0x0 }
  - { offset: 0x6CB9A, size: 0x8, addend: 0x0, symName: __ZZN5boost4json12basic_parserINS0_6detail7handlerEE12parse_numberILb1ELc43ELNS0_16number_precisionE0EEEPKcS8_St17integral_constantIbXT_EES9_IcXT0_EES9_IS6_XT1_EEE3loc_3, symObjAddr: 0x4E210, symBinAddr: 0x10006DF70, symSize: 0x0 }
  - { offset: 0x6CBEC, size: 0x8, addend: 0x0, symName: __ZZN5boost4json12basic_parserINS0_6detail7handlerEE12parse_numberILb1ELc43ELNS0_16number_precisionE0EEEPKcS8_St17integral_constantIbXT_EES9_IcXT0_EES9_IS6_XT1_EEE3loc_4, symObjAddr: 0x4E1F8, symBinAddr: 0x10006DF58, symSize: 0x0 }
  - { offset: 0x6CC0B, size: 0x8, addend: 0x0, symName: __ZZN5boost4json12basic_parserINS0_6detail7handlerEE12parse_numberILb1ELc43ELNS0_16number_precisionE0EEEPKcS8_St17integral_constantIbXT_EES9_IcXT0_EES9_IS6_XT1_EEE3loc_5, symObjAddr: 0x4E1E0, symBinAddr: 0x10006DF40, symSize: 0x0 }
  - { offset: 0x6CC3B, size: 0x8, addend: 0x0, symName: __ZZN5boost4json12basic_parserINS0_6detail7handlerEE12parse_numberILb1ELc43ELNS0_16number_precisionE0EEEPKcS8_St17integral_constantIbXT_EES9_IcXT0_EES9_IS6_XT1_EEE3loc_6, symObjAddr: 0x4E1C8, symBinAddr: 0x10006DF28, symSize: 0x0 }
  - { offset: 0x6CC6B, size: 0x8, addend: 0x0, symName: __ZZN5boost4json12basic_parserINS0_6detail7handlerEE12parse_numberILb1ELc43ELNS0_16number_precisionE0EEEPKcS8_St17integral_constantIbXT_EES9_IcXT0_EES9_IS6_XT1_EEE3loc_7, symObjAddr: 0x4E1B0, symBinAddr: 0x10006DF10, symSize: 0x0 }
  - { offset: 0x6CC8A, size: 0x8, addend: 0x0, symName: __ZZN5boost4json12basic_parserINS0_6detail7handlerEE12parse_numberILb1ELc43ELNS0_16number_precisionE0EEEPKcS8_St17integral_constantIbXT_EES9_IcXT0_EES9_IS6_XT1_EEE3loc_8, symObjAddr: 0x4E198, symBinAddr: 0x10006DEF8, symSize: 0x0 }
  - { offset: 0x6CCBB, size: 0x8, addend: 0x0, symName: __ZZN5boost4json12basic_parserINS0_6detail7handlerEE12parse_numberILb1ELc43ELNS0_16number_precisionE0EEEPKcS8_St17integral_constantIbXT_EES9_IcXT0_EES9_IS6_XT1_EEE3loc_9, symObjAddr: 0x4E180, symBinAddr: 0x10006DEE0, symSize: 0x0 }
  - { offset: 0x6CCDA, size: 0x8, addend: 0x0, symName: __ZZN5boost4json12basic_parserINS0_6detail7handlerEE12parse_numberILb1ELc43ELNS0_16number_precisionE0EEEPKcS8_St17integral_constantIbXT_EES9_IcXT0_EES9_IS6_XT1_EEE3loc__10_, symObjAddr: 0x4E168, symBinAddr: 0x10006DEC8, symSize: 0x0 }
  - { offset: 0x6CEB3, size: 0x8, addend: 0x0, symName: __ZZN5boost4json12basic_parserINS0_6detail7handlerEE12parse_numberILb1ELc45ELNS0_16number_precisionE2EEEPKcS8_St17integral_constantIbXT_EES9_IcXT0_EES9_IS6_XT1_EEE3loc, symObjAddr: 0x4E2E8, symBinAddr: 0x10006E048, symSize: 0x0 }
  - { offset: 0x6CEE3, size: 0x8, addend: 0x0, symName: __ZZN5boost4json12basic_parserINS0_6detail7handlerEE12parse_numberILb1ELc45ELNS0_16number_precisionE2EEEPKcS8_St17integral_constantIbXT_EES9_IcXT0_EES9_IS6_XT1_EEE3loc_0, symObjAddr: 0x4E2D0, symBinAddr: 0x10006E030, symSize: 0x0 }
  - { offset: 0x6CF24, size: 0x8, addend: 0x0, symName: __ZZN5boost4json12basic_parserINS0_6detail7handlerEE12parse_numberILb1ELc45ELNS0_16number_precisionE2EEEPKcS8_St17integral_constantIbXT_EES9_IcXT0_EES9_IS6_XT1_EEE3loc_1, symObjAddr: 0x4E2B8, symBinAddr: 0x10006E018, symSize: 0x0 }
  - { offset: 0x6CFE4, size: 0x8, addend: 0x0, symName: __ZZN5boost4json12basic_parserINS0_6detail7handlerEE12parse_numberILb1ELc45ELNS0_16number_precisionE2EEEPKcS8_St17integral_constantIbXT_EES9_IcXT0_EES9_IS6_XT1_EEE3loc_4, symObjAddr: 0x4E2A0, symBinAddr: 0x10006E000, symSize: 0x0 }
  - { offset: 0x6D003, size: 0x8, addend: 0x0, symName: __ZZN5boost4json12basic_parserINS0_6detail7handlerEE12parse_numberILb1ELc45ELNS0_16number_precisionE2EEEPKcS8_St17integral_constantIbXT_EES9_IcXT0_EES9_IS6_XT1_EEE3loc_5, symObjAddr: 0x4E288, symBinAddr: 0x10006DFE8, symSize: 0x0 }
  - { offset: 0x6D059, size: 0x8, addend: 0x0, symName: __ZZN5boost4json12basic_parserINS0_6detail7handlerEE12parse_numberILb1ELc45ELNS0_16number_precisionE2EEEPKcS8_St17integral_constantIbXT_EES9_IcXT0_EES9_IS6_XT1_EEE3loc_7, symObjAddr: 0x4E270, symBinAddr: 0x10006DFD0, symSize: 0x0 }
  - { offset: 0x6D078, size: 0x8, addend: 0x0, symName: __ZZN5boost4json12basic_parserINS0_6detail7handlerEE12parse_numberILb1ELc45ELNS0_16number_precisionE2EEEPKcS8_St17integral_constantIbXT_EES9_IcXT0_EES9_IS6_XT1_EEE3loc_8, symObjAddr: 0x4E258, symBinAddr: 0x10006DFB8, symSize: 0x0 }
  - { offset: 0x6D28D, size: 0x8, addend: 0x0, symName: __ZZN5boost4json12basic_parserINS0_6detail7handlerEE12parse_numberILb1ELc45ELNS0_16number_precisionE1EEEPKcS8_St17integral_constantIbXT_EES9_IcXT0_EES9_IS6_XT1_EEE3loc, symObjAddr: 0x4E408, symBinAddr: 0x10006E168, symSize: 0x0 }
  - { offset: 0x6D2BD, size: 0x8, addend: 0x0, symName: __ZZN5boost4json12basic_parserINS0_6detail7handlerEE12parse_numberILb1ELc45ELNS0_16number_precisionE1EEEPKcS8_St17integral_constantIbXT_EES9_IcXT0_EES9_IS6_XT1_EEE3loc_0, symObjAddr: 0x4E3F0, symBinAddr: 0x10006E150, symSize: 0x0 }
  - { offset: 0x6D2FE, size: 0x8, addend: 0x0, symName: __ZZN5boost4json12basic_parserINS0_6detail7handlerEE12parse_numberILb1ELc45ELNS0_16number_precisionE1EEEPKcS8_St17integral_constantIbXT_EES9_IcXT0_EES9_IS6_XT1_EEE3loc_1, symObjAddr: 0x4E3D8, symBinAddr: 0x10006E138, symSize: 0x0 }
  - { offset: 0x6D350, size: 0x8, addend: 0x0, symName: __ZZN5boost4json12basic_parserINS0_6detail7handlerEE12parse_numberILb1ELc45ELNS0_16number_precisionE1EEEPKcS8_St17integral_constantIbXT_EES9_IcXT0_EES9_IS6_XT1_EEE3loc_2, symObjAddr: 0x4E3C0, symBinAddr: 0x10006E120, symSize: 0x0 }
  - { offset: 0x6D380, size: 0x8, addend: 0x0, symName: __ZZN5boost4json12basic_parserINS0_6detail7handlerEE12parse_numberILb1ELc45ELNS0_16number_precisionE1EEEPKcS8_St17integral_constantIbXT_EES9_IcXT0_EES9_IS6_XT1_EEE3loc_3, symObjAddr: 0x4E3A8, symBinAddr: 0x10006E108, symSize: 0x0 }
  - { offset: 0x6D3D2, size: 0x8, addend: 0x0, symName: __ZZN5boost4json12basic_parserINS0_6detail7handlerEE12parse_numberILb1ELc45ELNS0_16number_precisionE1EEEPKcS8_St17integral_constantIbXT_EES9_IcXT0_EES9_IS6_XT1_EEE3loc_4, symObjAddr: 0x4E390, symBinAddr: 0x10006E0F0, symSize: 0x0 }
  - { offset: 0x6D3F1, size: 0x8, addend: 0x0, symName: __ZZN5boost4json12basic_parserINS0_6detail7handlerEE12parse_numberILb1ELc45ELNS0_16number_precisionE1EEEPKcS8_St17integral_constantIbXT_EES9_IcXT0_EES9_IS6_XT1_EEE3loc_5, symObjAddr: 0x4E378, symBinAddr: 0x10006E0D8, symSize: 0x0 }
  - { offset: 0x6D421, size: 0x8, addend: 0x0, symName: __ZZN5boost4json12basic_parserINS0_6detail7handlerEE12parse_numberILb1ELc45ELNS0_16number_precisionE1EEEPKcS8_St17integral_constantIbXT_EES9_IcXT0_EES9_IS6_XT1_EEE3loc_6, symObjAddr: 0x4E360, symBinAddr: 0x10006E0C0, symSize: 0x0 }
  - { offset: 0x6D451, size: 0x8, addend: 0x0, symName: __ZZN5boost4json12basic_parserINS0_6detail7handlerEE12parse_numberILb1ELc45ELNS0_16number_precisionE1EEEPKcS8_St17integral_constantIbXT_EES9_IcXT0_EES9_IS6_XT1_EEE3loc_7, symObjAddr: 0x4E348, symBinAddr: 0x10006E0A8, symSize: 0x0 }
  - { offset: 0x6D470, size: 0x8, addend: 0x0, symName: __ZZN5boost4json12basic_parserINS0_6detail7handlerEE12parse_numberILb1ELc45ELNS0_16number_precisionE1EEEPKcS8_St17integral_constantIbXT_EES9_IcXT0_EES9_IS6_XT1_EEE3loc_8, symObjAddr: 0x4E330, symBinAddr: 0x10006E090, symSize: 0x0 }
  - { offset: 0x6D4A1, size: 0x8, addend: 0x0, symName: __ZZN5boost4json12basic_parserINS0_6detail7handlerEE12parse_numberILb1ELc45ELNS0_16number_precisionE1EEEPKcS8_St17integral_constantIbXT_EES9_IcXT0_EES9_IS6_XT1_EEE3loc_9, symObjAddr: 0x4E318, symBinAddr: 0x10006E078, symSize: 0x0 }
  - { offset: 0x6D4C0, size: 0x8, addend: 0x0, symName: __ZZN5boost4json12basic_parserINS0_6detail7handlerEE12parse_numberILb1ELc45ELNS0_16number_precisionE1EEEPKcS8_St17integral_constantIbXT_EES9_IcXT0_EES9_IS6_XT1_EEE3loc__10_, symObjAddr: 0x4E300, symBinAddr: 0x10006E060, symSize: 0x0 }
  - { offset: 0x6D6C6, size: 0x8, addend: 0x0, symName: __ZZN5boost4json12basic_parserINS0_6detail7handlerEE12parse_numberILb1ELc45ELNS0_16number_precisionE0EEEPKcS8_St17integral_constantIbXT_EES9_IcXT0_EES9_IS6_XT1_EEE3loc, symObjAddr: 0x4E528, symBinAddr: 0x10006E288, symSize: 0x0 }
  - { offset: 0x6D6F6, size: 0x8, addend: 0x0, symName: __ZZN5boost4json12basic_parserINS0_6detail7handlerEE12parse_numberILb1ELc45ELNS0_16number_precisionE0EEEPKcS8_St17integral_constantIbXT_EES9_IcXT0_EES9_IS6_XT1_EEE3loc_0, symObjAddr: 0x4E510, symBinAddr: 0x10006E270, symSize: 0x0 }
  - { offset: 0x6D737, size: 0x8, addend: 0x0, symName: __ZZN5boost4json12basic_parserINS0_6detail7handlerEE12parse_numberILb1ELc45ELNS0_16number_precisionE0EEEPKcS8_St17integral_constantIbXT_EES9_IcXT0_EES9_IS6_XT1_EEE3loc_1, symObjAddr: 0x4E4F8, symBinAddr: 0x10006E258, symSize: 0x0 }
  - { offset: 0x6D789, size: 0x8, addend: 0x0, symName: __ZZN5boost4json12basic_parserINS0_6detail7handlerEE12parse_numberILb1ELc45ELNS0_16number_precisionE0EEEPKcS8_St17integral_constantIbXT_EES9_IcXT0_EES9_IS6_XT1_EEE3loc_2, symObjAddr: 0x4E4E0, symBinAddr: 0x10006E240, symSize: 0x0 }
  - { offset: 0x6D7B9, size: 0x8, addend: 0x0, symName: __ZZN5boost4json12basic_parserINS0_6detail7handlerEE12parse_numberILb1ELc45ELNS0_16number_precisionE0EEEPKcS8_St17integral_constantIbXT_EES9_IcXT0_EES9_IS6_XT1_EEE3loc_3, symObjAddr: 0x4E4C8, symBinAddr: 0x10006E228, symSize: 0x0 }
  - { offset: 0x6D80B, size: 0x8, addend: 0x0, symName: __ZZN5boost4json12basic_parserINS0_6detail7handlerEE12parse_numberILb1ELc45ELNS0_16number_precisionE0EEEPKcS8_St17integral_constantIbXT_EES9_IcXT0_EES9_IS6_XT1_EEE3loc_4, symObjAddr: 0x4E4B0, symBinAddr: 0x10006E210, symSize: 0x0 }
  - { offset: 0x6D82A, size: 0x8, addend: 0x0, symName: __ZZN5boost4json12basic_parserINS0_6detail7handlerEE12parse_numberILb1ELc45ELNS0_16number_precisionE0EEEPKcS8_St17integral_constantIbXT_EES9_IcXT0_EES9_IS6_XT1_EEE3loc_5, symObjAddr: 0x4E498, symBinAddr: 0x10006E1F8, symSize: 0x0 }
  - { offset: 0x6D85A, size: 0x8, addend: 0x0, symName: __ZZN5boost4json12basic_parserINS0_6detail7handlerEE12parse_numberILb1ELc45ELNS0_16number_precisionE0EEEPKcS8_St17integral_constantIbXT_EES9_IcXT0_EES9_IS6_XT1_EEE3loc_6, symObjAddr: 0x4E480, symBinAddr: 0x10006E1E0, symSize: 0x0 }
  - { offset: 0x6D88A, size: 0x8, addend: 0x0, symName: __ZZN5boost4json12basic_parserINS0_6detail7handlerEE12parse_numberILb1ELc45ELNS0_16number_precisionE0EEEPKcS8_St17integral_constantIbXT_EES9_IcXT0_EES9_IS6_XT1_EEE3loc_7, symObjAddr: 0x4E468, symBinAddr: 0x10006E1C8, symSize: 0x0 }
  - { offset: 0x6D8A9, size: 0x8, addend: 0x0, symName: __ZZN5boost4json12basic_parserINS0_6detail7handlerEE12parse_numberILb1ELc45ELNS0_16number_precisionE0EEEPKcS8_St17integral_constantIbXT_EES9_IcXT0_EES9_IS6_XT1_EEE3loc_8, symObjAddr: 0x4E450, symBinAddr: 0x10006E1B0, symSize: 0x0 }
  - { offset: 0x6D8DA, size: 0x8, addend: 0x0, symName: __ZZN5boost4json12basic_parserINS0_6detail7handlerEE12parse_numberILb1ELc45ELNS0_16number_precisionE0EEEPKcS8_St17integral_constantIbXT_EES9_IcXT0_EES9_IS6_XT1_EEE3loc_9, symObjAddr: 0x4E438, symBinAddr: 0x10006E198, symSize: 0x0 }
  - { offset: 0x6D8F9, size: 0x8, addend: 0x0, symName: __ZZN5boost4json12basic_parserINS0_6detail7handlerEE12parse_numberILb1ELc45ELNS0_16number_precisionE0EEEPKcS8_St17integral_constantIbXT_EES9_IcXT0_EES9_IS6_XT1_EEE3loc__10_, symObjAddr: 0x4E420, symBinAddr: 0x10006E180, symSize: 0x0 }
  - { offset: 0x6DAF8, size: 0x8, addend: 0x0, symName: __ZZN5boost4json12basic_parserINS0_6detail7handlerEE12parse_numberILb1ELc48ELNS0_16number_precisionE2EEEPKcS8_St17integral_constantIbXT_EES9_IcXT0_EES9_IS6_XT1_EEE3loc_0, symObjAddr: 0x4E5A0, symBinAddr: 0x10006E300, symSize: 0x0 }
  - { offset: 0x6DBEF, size: 0x8, addend: 0x0, symName: __ZZN5boost4json12basic_parserINS0_6detail7handlerEE12parse_numberILb1ELc48ELNS0_16number_precisionE2EEEPKcS8_St17integral_constantIbXT_EES9_IcXT0_EES9_IS6_XT1_EEE3loc_4, symObjAddr: 0x4E588, symBinAddr: 0x10006E2E8, symSize: 0x0 }
  - { offset: 0x6DC0E, size: 0x8, addend: 0x0, symName: __ZZN5boost4json12basic_parserINS0_6detail7handlerEE12parse_numberILb1ELc48ELNS0_16number_precisionE2EEEPKcS8_St17integral_constantIbXT_EES9_IcXT0_EES9_IS6_XT1_EEE3loc_5, symObjAddr: 0x4E570, symBinAddr: 0x10006E2D0, symSize: 0x0 }
  - { offset: 0x6DC64, size: 0x8, addend: 0x0, symName: __ZZN5boost4json12basic_parserINS0_6detail7handlerEE12parse_numberILb1ELc48ELNS0_16number_precisionE2EEEPKcS8_St17integral_constantIbXT_EES9_IcXT0_EES9_IS6_XT1_EEE3loc_7, symObjAddr: 0x4E558, symBinAddr: 0x10006E2B8, symSize: 0x0 }
  - { offset: 0x6DC83, size: 0x8, addend: 0x0, symName: __ZZN5boost4json12basic_parserINS0_6detail7handlerEE12parse_numberILb1ELc48ELNS0_16number_precisionE2EEEPKcS8_St17integral_constantIbXT_EES9_IcXT0_EES9_IS6_XT1_EEE3loc_8, symObjAddr: 0x4E540, symBinAddr: 0x10006E2A0, symSize: 0x0 }
  - { offset: 0x6DEBE, size: 0x8, addend: 0x0, symName: __ZZN5boost4json12basic_parserINS0_6detail7handlerEE12parse_numberILb1ELc48ELNS0_16number_precisionE1EEEPKcS8_St17integral_constantIbXT_EES9_IcXT0_EES9_IS6_XT1_EEE3loc_0, symObjAddr: 0x4E648, symBinAddr: 0x10006E3A8, symSize: 0x0 }
  - { offset: 0x6DFB5, size: 0x8, addend: 0x0, symName: __ZZN5boost4json12basic_parserINS0_6detail7handlerEE12parse_numberILb1ELc48ELNS0_16number_precisionE1EEEPKcS8_St17integral_constantIbXT_EES9_IcXT0_EES9_IS6_XT1_EEE3loc_4, symObjAddr: 0x4E630, symBinAddr: 0x10006E390, symSize: 0x0 }
  - { offset: 0x6DFD4, size: 0x8, addend: 0x0, symName: __ZZN5boost4json12basic_parserINS0_6detail7handlerEE12parse_numberILb1ELc48ELNS0_16number_precisionE1EEEPKcS8_St17integral_constantIbXT_EES9_IcXT0_EES9_IS6_XT1_EEE3loc_5, symObjAddr: 0x4E618, symBinAddr: 0x10006E378, symSize: 0x0 }
  - { offset: 0x6E004, size: 0x8, addend: 0x0, symName: __ZZN5boost4json12basic_parserINS0_6detail7handlerEE12parse_numberILb1ELc48ELNS0_16number_precisionE1EEEPKcS8_St17integral_constantIbXT_EES9_IcXT0_EES9_IS6_XT1_EEE3loc_6, symObjAddr: 0x4E600, symBinAddr: 0x10006E360, symSize: 0x0 }
  - { offset: 0x6E034, size: 0x8, addend: 0x0, symName: __ZZN5boost4json12basic_parserINS0_6detail7handlerEE12parse_numberILb1ELc48ELNS0_16number_precisionE1EEEPKcS8_St17integral_constantIbXT_EES9_IcXT0_EES9_IS6_XT1_EEE3loc_7, symObjAddr: 0x4E5E8, symBinAddr: 0x10006E348, symSize: 0x0 }
  - { offset: 0x6E053, size: 0x8, addend: 0x0, symName: __ZZN5boost4json12basic_parserINS0_6detail7handlerEE12parse_numberILb1ELc48ELNS0_16number_precisionE1EEEPKcS8_St17integral_constantIbXT_EES9_IcXT0_EES9_IS6_XT1_EEE3loc_8, symObjAddr: 0x4E5D0, symBinAddr: 0x10006E330, symSize: 0x0 }
  - { offset: 0x6E084, size: 0x8, addend: 0x0, symName: __ZZN5boost4json12basic_parserINS0_6detail7handlerEE12parse_numberILb1ELc48ELNS0_16number_precisionE1EEEPKcS8_St17integral_constantIbXT_EES9_IcXT0_EES9_IS6_XT1_EEE3loc_9, symObjAddr: 0x4E5B8, symBinAddr: 0x10006E318, symSize: 0x0 }
  - { offset: 0x6E2C5, size: 0x8, addend: 0x0, symName: __ZZN5boost4json12basic_parserINS0_6detail7handlerEE12parse_numberILb1ELc48ELNS0_16number_precisionE0EEEPKcS8_St17integral_constantIbXT_EES9_IcXT0_EES9_IS6_XT1_EEE3loc_0, symObjAddr: 0x4E6F0, symBinAddr: 0x10006E450, symSize: 0x0 }
  - { offset: 0x6E3BC, size: 0x8, addend: 0x0, symName: __ZZN5boost4json12basic_parserINS0_6detail7handlerEE12parse_numberILb1ELc48ELNS0_16number_precisionE0EEEPKcS8_St17integral_constantIbXT_EES9_IcXT0_EES9_IS6_XT1_EEE3loc_4, symObjAddr: 0x4E6D8, symBinAddr: 0x10006E438, symSize: 0x0 }
  - { offset: 0x6E3DB, size: 0x8, addend: 0x0, symName: __ZZN5boost4json12basic_parserINS0_6detail7handlerEE12parse_numberILb1ELc48ELNS0_16number_precisionE0EEEPKcS8_St17integral_constantIbXT_EES9_IcXT0_EES9_IS6_XT1_EEE3loc_5, symObjAddr: 0x4E6C0, symBinAddr: 0x10006E420, symSize: 0x0 }
  - { offset: 0x6E40B, size: 0x8, addend: 0x0, symName: __ZZN5boost4json12basic_parserINS0_6detail7handlerEE12parse_numberILb1ELc48ELNS0_16number_precisionE0EEEPKcS8_St17integral_constantIbXT_EES9_IcXT0_EES9_IS6_XT1_EEE3loc_6, symObjAddr: 0x4E6A8, symBinAddr: 0x10006E408, symSize: 0x0 }
  - { offset: 0x6E43B, size: 0x8, addend: 0x0, symName: __ZZN5boost4json12basic_parserINS0_6detail7handlerEE12parse_numberILb1ELc48ELNS0_16number_precisionE0EEEPKcS8_St17integral_constantIbXT_EES9_IcXT0_EES9_IS6_XT1_EEE3loc_7, symObjAddr: 0x4E690, symBinAddr: 0x10006E3F0, symSize: 0x0 }
  - { offset: 0x6E45A, size: 0x8, addend: 0x0, symName: __ZZN5boost4json12basic_parserINS0_6detail7handlerEE12parse_numberILb1ELc48ELNS0_16number_precisionE0EEEPKcS8_St17integral_constantIbXT_EES9_IcXT0_EES9_IS6_XT1_EEE3loc_8, symObjAddr: 0x4E678, symBinAddr: 0x10006E3D8, symSize: 0x0 }
  - { offset: 0x6E48B, size: 0x8, addend: 0x0, symName: __ZZN5boost4json12basic_parserINS0_6detail7handlerEE12parse_numberILb1ELc48ELNS0_16number_precisionE0EEEPKcS8_St17integral_constantIbXT_EES9_IcXT0_EES9_IS6_XT1_EEE3loc_9, symObjAddr: 0x4E660, symBinAddr: 0x10006E3C0, symSize: 0x0 }
  - { offset: 0x6E984, size: 0x8, addend: 0x0, symName: __ZNSt5dequeIdSaIdEE17_M_reallocate_mapEmb, symObjAddr: 0x366E8, symBinAddr: 0x100037A48, symSize: 0x1C0 }
  - { offset: 0x6F004, size: 0x8, addend: 0x0, symName: __ZNSt5dequeImSaImEE17_M_reallocate_mapEmb, symObjAddr: 0x361A8, symBinAddr: 0x100037508, symSize: 0x1C0 }
  - { offset: 0x702A5, size: 0x8, addend: 0x0, symName: __ZZN5boost4json12basic_parserINS0_6detail7handlerEE15parse_unescapedILb1ELb1EEEPKcS7_St17integral_constantIbXT_EES8_IbXT0_EEbE3loc, symObjAddr: 0x4E738, symBinAddr: 0x10006E498, symSize: 0x0 }
  - { offset: 0x702EA, size: 0x8, addend: 0x0, symName: __ZZN5boost4json12basic_parserINS0_6detail7handlerEE15parse_unescapedILb1ELb1EEEPKcS7_St17integral_constantIbXT_EES8_IbXT0_EEbE3loc_2, symObjAddr: 0x4E708, symBinAddr: 0x10006E468, symSize: 0x0 }
  - { offset: 0x70308, size: 0x8, addend: 0x0, symName: __ZZN5boost4json12basic_parserINS0_6detail7handlerEE15parse_unescapedILb1ELb1EEEPKcS7_St17integral_constantIbXT_EES8_IbXT0_EEbE3loc_1, symObjAddr: 0x4E720, symBinAddr: 0x10006E480, symSize: 0x0 }
  - { offset: 0x703B3, size: 0x8, addend: 0x0, symName: __ZN5boost4json6detail6bufferILm256EE11append_utf8Em, symObjAddr: 0x3270C, symBinAddr: 0x100033A6C, symSize: 0x194 }
  - { offset: 0x7041D, size: 0x8, addend: 0x0, symName: __ZN5boost4json6detail6bufferILm256EE9push_backEc, symObjAddr: 0x326C8, symBinAddr: 0x100033A28, symSize: 0x44 }
  - { offset: 0x7045E, size: 0x8, addend: 0x0, symName: __ZN5boost4json6detail6bufferILm256EE9push_backEc, symObjAddr: 0x326C8, symBinAddr: 0x100033A28, symSize: 0x44 }
  - { offset: 0x7066F, size: 0x8, addend: 0x0, symName: __ZNSt23mersenne_twister_engineIyLm64ELm312ELm156ELm31ELy13043109905998158313ELm29ELy6148914691236517205ELm17ELy8202884508482404352ELm37ELy18444473444759240704ELm43ELy6364136223846793005EE11_M_gen_randEv, symObjAddr: 0x2CE00, symBinAddr: 0x10002E160, symSize: 0xC8 }
  - { offset: 0x70FFB, size: 0x8, addend: 0x0, symName: __ZNSt5dequeImSaImEE16_M_push_back_auxIJmEEEvDpOT_, symObjAddr: 0x36368, symBinAddr: 0x1000376C8, symSize: 0xE0 }
  - { offset: 0x72408, size: 0x8, addend: 0x0, symName: __ZZN5boost4json12basic_parserINS0_6detail7handlerEE12parse_objectILb0ELb1EEEPKcS7_St17integral_constantIbXT_EES8_IbXT0_EEbbE3loc_0, symObjAddr: 0x4E7B0, symBinAddr: 0x10006E510, symSize: 0x0 }
  - { offset: 0x72427, size: 0x8, addend: 0x0, symName: __ZZN5boost4json12basic_parserINS0_6detail7handlerEE12parse_objectILb0ELb1EEEPKcS7_St17integral_constantIbXT_EES8_IbXT0_EEbbE3loc_1, symObjAddr: 0x4E798, symBinAddr: 0x10006E4F8, symSize: 0x0 }
  - { offset: 0x72446, size: 0x8, addend: 0x0, symName: __ZZN5boost4json12basic_parserINS0_6detail7handlerEE12parse_objectILb0ELb1EEEPKcS7_St17integral_constantIbXT_EES8_IbXT0_EEbbE3loc_2, symObjAddr: 0x4E780, symBinAddr: 0x10006E4E0, symSize: 0x0 }
  - { offset: 0x72465, size: 0x8, addend: 0x0, symName: __ZZN5boost4json12basic_parserINS0_6detail7handlerEE12parse_objectILb0ELb1EEEPKcS7_St17integral_constantIbXT_EES8_IbXT0_EEbbE3loc_3, symObjAddr: 0x4E768, symBinAddr: 0x10006E4C8, symSize: 0x0 }
  - { offset: 0x72484, size: 0x8, addend: 0x0, symName: __ZZN5boost4json12basic_parserINS0_6detail7handlerEE12parse_objectILb0ELb1EEEPKcS7_St17integral_constantIbXT_EES8_IbXT0_EEbbE3loc_4, symObjAddr: 0x4E750, symBinAddr: 0x10006E4B0, symSize: 0x0 }
  - { offset: 0x725A5, size: 0x8, addend: 0x0, symName: __ZZN5boost4json12basic_parserINS0_6detail7handlerEE11parse_arrayILb0ELb1EEEPKcS7_St17integral_constantIbXT_EES8_IbXT0_EEbbE3loc_0, symObjAddr: 0x4E7E0, symBinAddr: 0x10006E540, symSize: 0x0 }
  - { offset: 0x725C4, size: 0x8, addend: 0x0, symName: __ZZN5boost4json12basic_parserINS0_6detail7handlerEE11parse_arrayILb0ELb1EEEPKcS7_St17integral_constantIbXT_EES8_IbXT0_EEbbE3loc_1, symObjAddr: 0x4E7C8, symBinAddr: 0x10006E528, symSize: 0x0 }
  - { offset: 0x72758, size: 0x8, addend: 0x0, symName: __ZZN5boost4json12basic_parserINS0_6detail7handlerEE12parse_objectILb0ELb0EEEPKcS7_St17integral_constantIbXT_EES8_IbXT0_EEbbE3loc_0, symObjAddr: 0x4E858, symBinAddr: 0x10006E5B8, symSize: 0x0 }
  - { offset: 0x72777, size: 0x8, addend: 0x0, symName: __ZZN5boost4json12basic_parserINS0_6detail7handlerEE12parse_objectILb0ELb0EEEPKcS7_St17integral_constantIbXT_EES8_IbXT0_EEbbE3loc_1, symObjAddr: 0x4E840, symBinAddr: 0x10006E5A0, symSize: 0x0 }
  - { offset: 0x72796, size: 0x8, addend: 0x0, symName: __ZZN5boost4json12basic_parserINS0_6detail7handlerEE12parse_objectILb0ELb0EEEPKcS7_St17integral_constantIbXT_EES8_IbXT0_EEbbE3loc_2, symObjAddr: 0x4E828, symBinAddr: 0x10006E588, symSize: 0x0 }
  - { offset: 0x727B5, size: 0x8, addend: 0x0, symName: __ZZN5boost4json12basic_parserINS0_6detail7handlerEE12parse_objectILb0ELb0EEEPKcS7_St17integral_constantIbXT_EES8_IbXT0_EEbbE3loc_3, symObjAddr: 0x4E810, symBinAddr: 0x10006E570, symSize: 0x0 }
  - { offset: 0x727D4, size: 0x8, addend: 0x0, symName: __ZZN5boost4json12basic_parserINS0_6detail7handlerEE12parse_objectILb0ELb0EEEPKcS7_St17integral_constantIbXT_EES8_IbXT0_EEbbE3loc_4, symObjAddr: 0x4E7F8, symBinAddr: 0x10006E558, symSize: 0x0 }
  - { offset: 0x728F5, size: 0x8, addend: 0x0, symName: __ZZN5boost4json12basic_parserINS0_6detail7handlerEE11parse_arrayILb0ELb0EEEPKcS7_St17integral_constantIbXT_EES8_IbXT0_EEbbE3loc_0, symObjAddr: 0x4E888, symBinAddr: 0x10006E5E8, symSize: 0x0 }
  - { offset: 0x72914, size: 0x8, addend: 0x0, symName: __ZZN5boost4json12basic_parserINS0_6detail7handlerEE11parse_arrayILb0ELb0EEEPKcS7_St17integral_constantIbXT_EES8_IbXT0_EEbbE3loc_1, symObjAddr: 0x4E870, symBinAddr: 0x10006E5D0, symSize: 0x0 }
  - { offset: 0x72A98, size: 0x8, addend: 0x0, symName: __ZZN5boost4json12basic_parserINS0_6detail7handlerEE13parse_escapedILb0EEEPKcS7_mSt17integral_constantIbXT_EEbbE3loc, symObjAddr: 0x4EB10, symBinAddr: 0x10006E870, symSize: 0x0 }
  - { offset: 0x72AD8, size: 0x8, addend: 0x0, symName: __ZZN5boost4json12basic_parserINS0_6detail7handlerEE13parse_escapedILb0EEEPKcS7_mSt17integral_constantIbXT_EEbbE3loc_0, symObjAddr: 0x4EAF8, symBinAddr: 0x10006E858, symSize: 0x0 }
  - { offset: 0x72B5B, size: 0x8, addend: 0x0, symName: __ZZN5boost4json12basic_parserINS0_6detail7handlerEE13parse_escapedILb0EEEPKcS7_mSt17integral_constantIbXT_EEbbE3loc_1, symObjAddr: 0x4EAE0, symBinAddr: 0x10006E840, symSize: 0x0 }
  - { offset: 0x72B7A, size: 0x8, addend: 0x0, symName: __ZZN5boost4json12basic_parserINS0_6detail7handlerEE13parse_escapedILb0EEEPKcS7_mSt17integral_constantIbXT_EEbbE3loc_2, symObjAddr: 0x4EAC8, symBinAddr: 0x10006E828, symSize: 0x0 }
  - { offset: 0x72B99, size: 0x8, addend: 0x0, symName: __ZZN5boost4json12basic_parserINS0_6detail7handlerEE13parse_escapedILb0EEEPKcS7_mSt17integral_constantIbXT_EEbbE3loc_3, symObjAddr: 0x4EAB0, symBinAddr: 0x10006E810, symSize: 0x0 }
  - { offset: 0x72BB8, size: 0x8, addend: 0x0, symName: __ZZN5boost4json12basic_parserINS0_6detail7handlerEE13parse_escapedILb0EEEPKcS7_mSt17integral_constantIbXT_EEbbE3loc_4, symObjAddr: 0x4EA98, symBinAddr: 0x10006E7F8, symSize: 0x0 }
  - { offset: 0x72BD7, size: 0x8, addend: 0x0, symName: __ZZN5boost4json12basic_parserINS0_6detail7handlerEE13parse_escapedILb0EEEPKcS7_mSt17integral_constantIbXT_EEbbE3loc_5, symObjAddr: 0x4EA80, symBinAddr: 0x10006E7E0, symSize: 0x0 }
  - { offset: 0x72BF6, size: 0x8, addend: 0x0, symName: __ZZN5boost4json12basic_parserINS0_6detail7handlerEE13parse_escapedILb0EEEPKcS7_mSt17integral_constantIbXT_EEbbE3loc_6, symObjAddr: 0x4EA68, symBinAddr: 0x10006E7C8, symSize: 0x0 }
  - { offset: 0x72C16, size: 0x8, addend: 0x0, symName: __ZZN5boost4json12basic_parserINS0_6detail7handlerEE13parse_escapedILb0EEEPKcS7_mSt17integral_constantIbXT_EEbbE3loc_7, symObjAddr: 0x4EA50, symBinAddr: 0x10006E7B0, symSize: 0x0 }
  - { offset: 0x72C46, size: 0x8, addend: 0x0, symName: __ZZN5boost4json12basic_parserINS0_6detail7handlerEE13parse_escapedILb0EEEPKcS7_mSt17integral_constantIbXT_EEbbE3loc_8, symObjAddr: 0x4EA38, symBinAddr: 0x10006E798, symSize: 0x0 }
  - { offset: 0x72C65, size: 0x8, addend: 0x0, symName: __ZZN5boost4json12basic_parserINS0_6detail7handlerEE13parse_escapedILb0EEEPKcS7_mSt17integral_constantIbXT_EEbbE3loc_9, symObjAddr: 0x4EA20, symBinAddr: 0x10006E780, symSize: 0x0 }
  - { offset: 0x72C84, size: 0x8, addend: 0x0, symName: __ZZN5boost4json12basic_parserINS0_6detail7handlerEE13parse_escapedILb0EEEPKcS7_mSt17integral_constantIbXT_EEbbE3loc__10_, symObjAddr: 0x4EA08, symBinAddr: 0x10006E768, symSize: 0x0 }
  - { offset: 0x72CA3, size: 0x8, addend: 0x0, symName: __ZZN5boost4json12basic_parserINS0_6detail7handlerEE13parse_escapedILb0EEEPKcS7_mSt17integral_constantIbXT_EEbbE3loc__11_, symObjAddr: 0x4E9F0, symBinAddr: 0x10006E750, symSize: 0x0 }
  - { offset: 0x72CC2, size: 0x8, addend: 0x0, symName: __ZZN5boost4json12basic_parserINS0_6detail7handlerEE13parse_escapedILb0EEEPKcS7_mSt17integral_constantIbXT_EEbbE3loc__12_, symObjAddr: 0x4E9D8, symBinAddr: 0x10006E738, symSize: 0x0 }
  - { offset: 0x72CE1, size: 0x8, addend: 0x0, symName: __ZZN5boost4json12basic_parserINS0_6detail7handlerEE13parse_escapedILb0EEEPKcS7_mSt17integral_constantIbXT_EEbbE3loc__13_, symObjAddr: 0x4E9C0, symBinAddr: 0x10006E720, symSize: 0x0 }
  - { offset: 0x72D00, size: 0x8, addend: 0x0, symName: __ZZN5boost4json12basic_parserINS0_6detail7handlerEE13parse_escapedILb0EEEPKcS7_mSt17integral_constantIbXT_EEbbE3loc__14_, symObjAddr: 0x4E9A8, symBinAddr: 0x10006E708, symSize: 0x0 }
  - { offset: 0x72D1F, size: 0x8, addend: 0x0, symName: __ZZN5boost4json12basic_parserINS0_6detail7handlerEE13parse_escapedILb0EEEPKcS7_mSt17integral_constantIbXT_EEbbE3loc__15_, symObjAddr: 0x4E990, symBinAddr: 0x10006E6F0, symSize: 0x0 }
  - { offset: 0x72D3E, size: 0x8, addend: 0x0, symName: __ZZN5boost4json12basic_parserINS0_6detail7handlerEE13parse_escapedILb0EEEPKcS7_mSt17integral_constantIbXT_EEbbE3loc__16_, symObjAddr: 0x4E978, symBinAddr: 0x10006E6D8, symSize: 0x0 }
  - { offset: 0x72D5D, size: 0x8, addend: 0x0, symName: __ZZN5boost4json12basic_parserINS0_6detail7handlerEE13parse_escapedILb0EEEPKcS7_mSt17integral_constantIbXT_EEbbE3loc__17_, symObjAddr: 0x4E960, symBinAddr: 0x10006E6C0, symSize: 0x0 }
  - { offset: 0x72D7C, size: 0x8, addend: 0x0, symName: __ZZN5boost4json12basic_parserINS0_6detail7handlerEE13parse_escapedILb0EEEPKcS7_mSt17integral_constantIbXT_EEbbE3loc__18_, symObjAddr: 0x4E948, symBinAddr: 0x10006E6A8, symSize: 0x0 }
  - { offset: 0x72D9B, size: 0x8, addend: 0x0, symName: __ZZN5boost4json12basic_parserINS0_6detail7handlerEE13parse_escapedILb0EEEPKcS7_mSt17integral_constantIbXT_EEbbE3loc__19_, symObjAddr: 0x4E930, symBinAddr: 0x10006E690, symSize: 0x0 }
  - { offset: 0x72DBB, size: 0x8, addend: 0x0, symName: __ZZN5boost4json12basic_parserINS0_6detail7handlerEE13parse_escapedILb0EEEPKcS7_mSt17integral_constantIbXT_EEbbE3loc__20_, symObjAddr: 0x4E918, symBinAddr: 0x10006E678, symSize: 0x0 }
  - { offset: 0x72DEB, size: 0x8, addend: 0x0, symName: __ZZN5boost4json12basic_parserINS0_6detail7handlerEE13parse_escapedILb0EEEPKcS7_mSt17integral_constantIbXT_EEbbE3loc__21_, symObjAddr: 0x4E900, symBinAddr: 0x10006E660, symSize: 0x0 }
  - { offset: 0x72E1B, size: 0x8, addend: 0x0, symName: __ZZN5boost4json12basic_parserINS0_6detail7handlerEE13parse_escapedILb0EEEPKcS7_mSt17integral_constantIbXT_EEbbE3loc__22_, symObjAddr: 0x4E8E8, symBinAddr: 0x10006E648, symSize: 0x0 }
  - { offset: 0x72E4B, size: 0x8, addend: 0x0, symName: __ZZN5boost4json12basic_parserINS0_6detail7handlerEE13parse_escapedILb0EEEPKcS7_mSt17integral_constantIbXT_EEbbE3loc__23_, symObjAddr: 0x4E8D0, symBinAddr: 0x10006E630, symSize: 0x0 }
  - { offset: 0x72E6A, size: 0x8, addend: 0x0, symName: __ZZN5boost4json12basic_parserINS0_6detail7handlerEE13parse_escapedILb0EEEPKcS7_mSt17integral_constantIbXT_EEbbE3loc__24_, symObjAddr: 0x4E8B8, symBinAddr: 0x10006E618, symSize: 0x0 }
  - { offset: 0x72E89, size: 0x8, addend: 0x0, symName: __ZZN5boost4json12basic_parserINS0_6detail7handlerEE13parse_escapedILb0EEEPKcS7_mSt17integral_constantIbXT_EEbbE3loc__25_, symObjAddr: 0x4E8A0, symBinAddr: 0x10006E600, symSize: 0x0 }
  - { offset: 0x72F72, size: 0x8, addend: 0x0, symName: __ZZN5boost4json12basic_parserINS0_6detail7handlerEE15parse_unescapedILb0ELb0EEEPKcS7_St17integral_constantIbXT_EES8_IbXT0_EEbE3loc_0, symObjAddr: 0x4EB58, symBinAddr: 0x10006E8B8, symSize: 0x0 }
  - { offset: 0x72FA2, size: 0x8, addend: 0x0, symName: __ZZN5boost4json12basic_parserINS0_6detail7handlerEE15parse_unescapedILb0ELb0EEEPKcS7_St17integral_constantIbXT_EES8_IbXT0_EEbE3loc_2, symObjAddr: 0x4EB28, symBinAddr: 0x10006E888, symSize: 0x0 }
  - { offset: 0x72FC0, size: 0x8, addend: 0x0, symName: __ZZN5boost4json12basic_parserINS0_6detail7handlerEE15parse_unescapedILb0ELb0EEEPKcS7_St17integral_constantIbXT_EES8_IbXT0_EEbE3loc_1, symObjAddr: 0x4EB40, symBinAddr: 0x10006E8A0, symSize: 0x0 }
  - { offset: 0x730CD, size: 0x8, addend: 0x0, symName: __ZZN5boost4json12basic_parserINS0_6detail7handlerEE13parse_literalILin1EEEPKcS7_St17integral_constantIiXT_EEE3loc, symObjAddr: 0x4EB70, symBinAddr: 0x10006E8D0, symSize: 0x0 }
  - { offset: 0x73154, size: 0x8, addend: 0x0, symName: __ZN5boost4json12basic_parserINS0_6detail7handlerEE15suspend_or_failENS4_5stateEm, symObjAddr: 0x2C380, symBinAddr: 0x10002D6E0, symSize: 0xEC }
  - { offset: 0x734C3, size: 0x8, addend: 0x0, symName: __ZZN5boost4json12basic_parserINS0_6detail7handlerEE13parse_escapedILb1EEEPKcS7_mSt17integral_constantIbXT_EEbbE3loc, symObjAddr: 0x4EDF8, symBinAddr: 0x10006EB58, symSize: 0x0 }
  - { offset: 0x73503, size: 0x8, addend: 0x0, symName: __ZZN5boost4json12basic_parserINS0_6detail7handlerEE13parse_escapedILb1EEEPKcS7_mSt17integral_constantIbXT_EEbbE3loc_0, symObjAddr: 0x4EDE0, symBinAddr: 0x10006EB40, symSize: 0x0 }
  - { offset: 0x73586, size: 0x8, addend: 0x0, symName: __ZZN5boost4json12basic_parserINS0_6detail7handlerEE13parse_escapedILb1EEEPKcS7_mSt17integral_constantIbXT_EEbbE3loc_1, symObjAddr: 0x4EDC8, symBinAddr: 0x10006EB28, symSize: 0x0 }
  - { offset: 0x735A5, size: 0x8, addend: 0x0, symName: __ZZN5boost4json12basic_parserINS0_6detail7handlerEE13parse_escapedILb1EEEPKcS7_mSt17integral_constantIbXT_EEbbE3loc_2, symObjAddr: 0x4EDB0, symBinAddr: 0x10006EB10, symSize: 0x0 }
  - { offset: 0x735C4, size: 0x8, addend: 0x0, symName: __ZZN5boost4json12basic_parserINS0_6detail7handlerEE13parse_escapedILb1EEEPKcS7_mSt17integral_constantIbXT_EEbbE3loc_3, symObjAddr: 0x4ED98, symBinAddr: 0x10006EAF8, symSize: 0x0 }
  - { offset: 0x735E3, size: 0x8, addend: 0x0, symName: __ZZN5boost4json12basic_parserINS0_6detail7handlerEE13parse_escapedILb1EEEPKcS7_mSt17integral_constantIbXT_EEbbE3loc_4, symObjAddr: 0x4ED80, symBinAddr: 0x10006EAE0, symSize: 0x0 }
  - { offset: 0x73602, size: 0x8, addend: 0x0, symName: __ZZN5boost4json12basic_parserINS0_6detail7handlerEE13parse_escapedILb1EEEPKcS7_mSt17integral_constantIbXT_EEbbE3loc_5, symObjAddr: 0x4ED68, symBinAddr: 0x10006EAC8, symSize: 0x0 }
  - { offset: 0x73621, size: 0x8, addend: 0x0, symName: __ZZN5boost4json12basic_parserINS0_6detail7handlerEE13parse_escapedILb1EEEPKcS7_mSt17integral_constantIbXT_EEbbE3loc_6, symObjAddr: 0x4ED50, symBinAddr: 0x10006EAB0, symSize: 0x0 }
  - { offset: 0x73641, size: 0x8, addend: 0x0, symName: __ZZN5boost4json12basic_parserINS0_6detail7handlerEE13parse_escapedILb1EEEPKcS7_mSt17integral_constantIbXT_EEbbE3loc_7, symObjAddr: 0x4ED38, symBinAddr: 0x10006EA98, symSize: 0x0 }
  - { offset: 0x73671, size: 0x8, addend: 0x0, symName: __ZZN5boost4json12basic_parserINS0_6detail7handlerEE13parse_escapedILb1EEEPKcS7_mSt17integral_constantIbXT_EEbbE3loc_8, symObjAddr: 0x4ED20, symBinAddr: 0x10006EA80, symSize: 0x0 }
  - { offset: 0x73690, size: 0x8, addend: 0x0, symName: __ZZN5boost4json12basic_parserINS0_6detail7handlerEE13parse_escapedILb1EEEPKcS7_mSt17integral_constantIbXT_EEbbE3loc_9, symObjAddr: 0x4ED08, symBinAddr: 0x10006EA68, symSize: 0x0 }
  - { offset: 0x736AF, size: 0x8, addend: 0x0, symName: __ZZN5boost4json12basic_parserINS0_6detail7handlerEE13parse_escapedILb1EEEPKcS7_mSt17integral_constantIbXT_EEbbE3loc__10_, symObjAddr: 0x4ECF0, symBinAddr: 0x10006EA50, symSize: 0x0 }
  - { offset: 0x736CE, size: 0x8, addend: 0x0, symName: __ZZN5boost4json12basic_parserINS0_6detail7handlerEE13parse_escapedILb1EEEPKcS7_mSt17integral_constantIbXT_EEbbE3loc__11_, symObjAddr: 0x4ECD8, symBinAddr: 0x10006EA38, symSize: 0x0 }
  - { offset: 0x736ED, size: 0x8, addend: 0x0, symName: __ZZN5boost4json12basic_parserINS0_6detail7handlerEE13parse_escapedILb1EEEPKcS7_mSt17integral_constantIbXT_EEbbE3loc__12_, symObjAddr: 0x4ECC0, symBinAddr: 0x10006EA20, symSize: 0x0 }
  - { offset: 0x7370C, size: 0x8, addend: 0x0, symName: __ZZN5boost4json12basic_parserINS0_6detail7handlerEE13parse_escapedILb1EEEPKcS7_mSt17integral_constantIbXT_EEbbE3loc__13_, symObjAddr: 0x4ECA8, symBinAddr: 0x10006EA08, symSize: 0x0 }
  - { offset: 0x7372B, size: 0x8, addend: 0x0, symName: __ZZN5boost4json12basic_parserINS0_6detail7handlerEE13parse_escapedILb1EEEPKcS7_mSt17integral_constantIbXT_EEbbE3loc__14_, symObjAddr: 0x4EC90, symBinAddr: 0x10006E9F0, symSize: 0x0 }
  - { offset: 0x7374A, size: 0x8, addend: 0x0, symName: __ZZN5boost4json12basic_parserINS0_6detail7handlerEE13parse_escapedILb1EEEPKcS7_mSt17integral_constantIbXT_EEbbE3loc__15_, symObjAddr: 0x4EC78, symBinAddr: 0x10006E9D8, symSize: 0x0 }
  - { offset: 0x73769, size: 0x8, addend: 0x0, symName: __ZZN5boost4json12basic_parserINS0_6detail7handlerEE13parse_escapedILb1EEEPKcS7_mSt17integral_constantIbXT_EEbbE3loc__16_, symObjAddr: 0x4EC60, symBinAddr: 0x10006E9C0, symSize: 0x0 }
  - { offset: 0x73788, size: 0x8, addend: 0x0, symName: __ZZN5boost4json12basic_parserINS0_6detail7handlerEE13parse_escapedILb1EEEPKcS7_mSt17integral_constantIbXT_EEbbE3loc__17_, symObjAddr: 0x4EC48, symBinAddr: 0x10006E9A8, symSize: 0x0 }
  - { offset: 0x737A7, size: 0x8, addend: 0x0, symName: __ZZN5boost4json12basic_parserINS0_6detail7handlerEE13parse_escapedILb1EEEPKcS7_mSt17integral_constantIbXT_EEbbE3loc__18_, symObjAddr: 0x4EC30, symBinAddr: 0x10006E990, symSize: 0x0 }
  - { offset: 0x737C6, size: 0x8, addend: 0x0, symName: __ZZN5boost4json12basic_parserINS0_6detail7handlerEE13parse_escapedILb1EEEPKcS7_mSt17integral_constantIbXT_EEbbE3loc__19_, symObjAddr: 0x4EC18, symBinAddr: 0x10006E978, symSize: 0x0 }
  - { offset: 0x737E6, size: 0x8, addend: 0x0, symName: __ZZN5boost4json12basic_parserINS0_6detail7handlerEE13parse_escapedILb1EEEPKcS7_mSt17integral_constantIbXT_EEbbE3loc__20_, symObjAddr: 0x4EC00, symBinAddr: 0x10006E960, symSize: 0x0 }
  - { offset: 0x73816, size: 0x8, addend: 0x0, symName: __ZZN5boost4json12basic_parserINS0_6detail7handlerEE13parse_escapedILb1EEEPKcS7_mSt17integral_constantIbXT_EEbbE3loc__21_, symObjAddr: 0x4EBE8, symBinAddr: 0x10006E948, symSize: 0x0 }
  - { offset: 0x73846, size: 0x8, addend: 0x0, symName: __ZZN5boost4json12basic_parserINS0_6detail7handlerEE13parse_escapedILb1EEEPKcS7_mSt17integral_constantIbXT_EEbbE3loc__22_, symObjAddr: 0x4EBD0, symBinAddr: 0x10006E930, symSize: 0x0 }
  - { offset: 0x73876, size: 0x8, addend: 0x0, symName: __ZZN5boost4json12basic_parserINS0_6detail7handlerEE13parse_escapedILb1EEEPKcS7_mSt17integral_constantIbXT_EEbbE3loc__23_, symObjAddr: 0x4EBB8, symBinAddr: 0x10006E918, symSize: 0x0 }
  - { offset: 0x73895, size: 0x8, addend: 0x0, symName: __ZZN5boost4json12basic_parserINS0_6detail7handlerEE13parse_escapedILb1EEEPKcS7_mSt17integral_constantIbXT_EEbbE3loc__24_, symObjAddr: 0x4EBA0, symBinAddr: 0x10006E900, symSize: 0x0 }
  - { offset: 0x738B4, size: 0x8, addend: 0x0, symName: __ZZN5boost4json12basic_parserINS0_6detail7handlerEE13parse_escapedILb1EEEPKcS7_mSt17integral_constantIbXT_EEbbE3loc__25_, symObjAddr: 0x4EB88, symBinAddr: 0x10006E8E8, symSize: 0x0 }
  - { offset: 0x738DE, size: 0x8, addend: 0x0, symName: __ZN5boost4json12basic_parserINS0_6detail7handlerEE13maybe_suspendEPKcNS4_5stateEm, symObjAddr: 0x2C280, symBinAddr: 0x10002D5E0, symSize: 0x100 }
  - { offset: 0x744EA, size: 0x8, addend: 0x0, symName: __ZSt16__do_uninit_copyIPKSt8functionIFvRN5lapsa7ContextI7MyStateEEEEPS7_ET0_T_SC_SB_, symObjAddr: 0x2BE68, symBinAddr: 0x10002D1C8, symSize: 0xF8 }
  - { offset: 0x74814, size: 0x8, addend: 0x0, symName: __ZNSt5dequeIdSaIdEE16_M_push_back_auxIJdEEEvDpOT_, symObjAddr: 0x36AF0, symBinAddr: 0x100037E50, symSize: 0xE0 }
  - { offset: 0x75927, size: 0x8, addend: 0x0, symName: __ZN5boost4json6detail8charconv6detail23from_chars_integer_implIyyEENS2_19from_chars_result_tIcEEPKcS8_RT_i, symObjAddr: 0x2B108, symBinAddr: 0x10002C468, symSize: 0xFC }
  - { offset: 0x7633A, size: 0x8, addend: 0x0, symName: __ZZN5boost4json12basic_parserINS0_6detail7handlerEE12parse_objectILb1ELb1EEEPKcS7_St17integral_constantIbXT_EES8_IbXT0_EEbbE3loc, symObjAddr: 0x4EE88, symBinAddr: 0x10006EBE8, symSize: 0x0 }
  - { offset: 0x76359, size: 0x8, addend: 0x0, symName: __ZZN5boost4json12basic_parserINS0_6detail7handlerEE12parse_objectILb1ELb1EEEPKcS7_St17integral_constantIbXT_EES8_IbXT0_EEbbE3loc_0, symObjAddr: 0x4EE70, symBinAddr: 0x10006EBD0, symSize: 0x0 }
  - { offset: 0x76378, size: 0x8, addend: 0x0, symName: __ZZN5boost4json12basic_parserINS0_6detail7handlerEE12parse_objectILb1ELb1EEEPKcS7_St17integral_constantIbXT_EES8_IbXT0_EEbbE3loc_1, symObjAddr: 0x4EE58, symBinAddr: 0x10006EBB8, symSize: 0x0 }
  - { offset: 0x76397, size: 0x8, addend: 0x0, symName: __ZZN5boost4json12basic_parserINS0_6detail7handlerEE12parse_objectILb1ELb1EEEPKcS7_St17integral_constantIbXT_EES8_IbXT0_EEbbE3loc_2, symObjAddr: 0x4EE40, symBinAddr: 0x10006EBA0, symSize: 0x0 }
  - { offset: 0x763B6, size: 0x8, addend: 0x0, symName: __ZZN5boost4json12basic_parserINS0_6detail7handlerEE12parse_objectILb1ELb1EEEPKcS7_St17integral_constantIbXT_EES8_IbXT0_EEbbE3loc_3, symObjAddr: 0x4EE28, symBinAddr: 0x10006EB88, symSize: 0x0 }
  - { offset: 0x763D5, size: 0x8, addend: 0x0, symName: __ZZN5boost4json12basic_parserINS0_6detail7handlerEE12parse_objectILb1ELb1EEEPKcS7_St17integral_constantIbXT_EES8_IbXT0_EEbbE3loc_4, symObjAddr: 0x4EE10, symBinAddr: 0x10006EB70, symSize: 0x0 }
  - { offset: 0x764E1, size: 0x8, addend: 0x0, symName: __ZZN5boost4json12basic_parserINS0_6detail7handlerEE11parse_arrayILb1ELb1EEEPKcS7_St17integral_constantIbXT_EES8_IbXT0_EEbbE3loc, symObjAddr: 0x4EED0, symBinAddr: 0x10006EC30, symSize: 0x0 }
  - { offset: 0x76500, size: 0x8, addend: 0x0, symName: __ZZN5boost4json12basic_parserINS0_6detail7handlerEE11parse_arrayILb1ELb1EEEPKcS7_St17integral_constantIbXT_EES8_IbXT0_EEbbE3loc_0, symObjAddr: 0x4EEB8, symBinAddr: 0x10006EC18, symSize: 0x0 }
  - { offset: 0x7651F, size: 0x8, addend: 0x0, symName: __ZZN5boost4json12basic_parserINS0_6detail7handlerEE11parse_arrayILb1ELb1EEEPKcS7_St17integral_constantIbXT_EES8_IbXT0_EEbbE3loc_1, symObjAddr: 0x4EEA0, symBinAddr: 0x10006EC00, symSize: 0x0 }
  - { offset: 0x766CD, size: 0x8, addend: 0x0, symName: __ZZN5boost4json12basic_parserINS0_6detail7handlerEE12parse_objectILb1ELb0EEEPKcS7_St17integral_constantIbXT_EES8_IbXT0_EEbbE3loc, symObjAddr: 0x4EF60, symBinAddr: 0x10006ECC0, symSize: 0x0 }
  - { offset: 0x766EC, size: 0x8, addend: 0x0, symName: __ZZN5boost4json12basic_parserINS0_6detail7handlerEE12parse_objectILb1ELb0EEEPKcS7_St17integral_constantIbXT_EES8_IbXT0_EEbbE3loc_0, symObjAddr: 0x4EF48, symBinAddr: 0x10006ECA8, symSize: 0x0 }
  - { offset: 0x7670B, size: 0x8, addend: 0x0, symName: __ZZN5boost4json12basic_parserINS0_6detail7handlerEE12parse_objectILb1ELb0EEEPKcS7_St17integral_constantIbXT_EES8_IbXT0_EEbbE3loc_1, symObjAddr: 0x4EF30, symBinAddr: 0x10006EC90, symSize: 0x0 }
  - { offset: 0x7672A, size: 0x8, addend: 0x0, symName: __ZZN5boost4json12basic_parserINS0_6detail7handlerEE12parse_objectILb1ELb0EEEPKcS7_St17integral_constantIbXT_EES8_IbXT0_EEbbE3loc_2, symObjAddr: 0x4EF18, symBinAddr: 0x10006EC78, symSize: 0x0 }
  - { offset: 0x76749, size: 0x8, addend: 0x0, symName: __ZZN5boost4json12basic_parserINS0_6detail7handlerEE12parse_objectILb1ELb0EEEPKcS7_St17integral_constantIbXT_EES8_IbXT0_EEbbE3loc_3, symObjAddr: 0x4EF00, symBinAddr: 0x10006EC60, symSize: 0x0 }
  - { offset: 0x76768, size: 0x8, addend: 0x0, symName: __ZZN5boost4json12basic_parserINS0_6detail7handlerEE12parse_objectILb1ELb0EEEPKcS7_St17integral_constantIbXT_EES8_IbXT0_EEbbE3loc_4, symObjAddr: 0x4EEE8, symBinAddr: 0x10006EC48, symSize: 0x0 }
  - { offset: 0x76874, size: 0x8, addend: 0x0, symName: __ZZN5boost4json12basic_parserINS0_6detail7handlerEE11parse_arrayILb1ELb0EEEPKcS7_St17integral_constantIbXT_EES8_IbXT0_EEbbE3loc, symObjAddr: 0x4EFA8, symBinAddr: 0x10006ED08, symSize: 0x0 }
  - { offset: 0x76893, size: 0x8, addend: 0x0, symName: __ZZN5boost4json12basic_parserINS0_6detail7handlerEE11parse_arrayILb1ELb0EEEPKcS7_St17integral_constantIbXT_EES8_IbXT0_EEbbE3loc_0, symObjAddr: 0x4EF90, symBinAddr: 0x10006ECF0, symSize: 0x0 }
  - { offset: 0x768B2, size: 0x8, addend: 0x0, symName: __ZZN5boost4json12basic_parserINS0_6detail7handlerEE11parse_arrayILb1ELb0EEEPKcS7_St17integral_constantIbXT_EES8_IbXT0_EEbbE3loc_1, symObjAddr: 0x4EF78, symBinAddr: 0x10006ECD8, symSize: 0x0 }
  - { offset: 0x7699B, size: 0x8, addend: 0x0, symName: __ZZN5boost4json12basic_parserINS0_6detail7handlerEE15parse_unescapedILb1ELb0EEEPKcS7_St17integral_constantIbXT_EES8_IbXT0_EEbE3loc_0, symObjAddr: 0x4EFF0, symBinAddr: 0x10006ED50, symSize: 0x0 }
  - { offset: 0x769CB, size: 0x8, addend: 0x0, symName: __ZZN5boost4json12basic_parserINS0_6detail7handlerEE15parse_unescapedILb1ELb0EEEPKcS7_St17integral_constantIbXT_EES8_IbXT0_EEbE3loc_2, symObjAddr: 0x4EFC0, symBinAddr: 0x10006ED20, symSize: 0x0 }
  - { offset: 0x769E9, size: 0x8, addend: 0x0, symName: __ZZN5boost4json12basic_parserINS0_6detail7handlerEE15parse_unescapedILb1ELb0EEEPKcS7_St17integral_constantIbXT_EES8_IbXT0_EEbE3loc_1, symObjAddr: 0x4EFD8, symBinAddr: 0x10006ED38, symSize: 0x0 }
  - { offset: 0x76AF4, size: 0x8, addend: 0x0, symName: __ZZN5boost4json12basic_parserINS0_6detail7handlerEE13parse_literalILi5EEEPKcS7_St17integral_constantIiXT_EEE3loc, symObjAddr: 0x4F020, symBinAddr: 0x10006ED80, symSize: 0x0 }
  - { offset: 0x76B14, size: 0x8, addend: 0x0, symName: __ZZN5boost4json12basic_parserINS0_6detail7handlerEE13parse_literalILi5EEEPKcS7_St17integral_constantIiXT_EEE3loc_0, symObjAddr: 0x4F008, symBinAddr: 0x10006ED68, symSize: 0x0 }
  - { offset: 0x76BEB, size: 0x8, addend: 0x0, symName: __ZZN5boost4json12basic_parserINS0_6detail7handlerEE13parse_literalILi3EEEPKcS7_St17integral_constantIiXT_EEE3loc, symObjAddr: 0x4F050, symBinAddr: 0x10006EDB0, symSize: 0x0 }
  - { offset: 0x76C0B, size: 0x8, addend: 0x0, symName: __ZZN5boost4json12basic_parserINS0_6detail7handlerEE13parse_literalILi3EEEPKcS7_St17integral_constantIiXT_EEE3loc_0, symObjAddr: 0x4F038, symBinAddr: 0x10006ED98, symSize: 0x0 }
  - { offset: 0x76C1F, size: 0x8, addend: 0x0, symName: __ZN5boost4json12basic_parserINS0_6detail7handlerEE4failEPKcNS0_5errorEPKNS_15source_locationE, symObjAddr: 0x2A3AC, symBinAddr: 0x10002B70C, symSize: 0x74 }
  - { offset: 0x76E56, size: 0x8, addend: 0x0, symName: __ZZN5boost4json12basic_parserINS0_6detail7handlerEE13parse_literalILi2EEEPKcS7_St17integral_constantIiXT_EEE3loc, symObjAddr: 0x4F080, symBinAddr: 0x10006EDE0, symSize: 0x0 }
  - { offset: 0x76E76, size: 0x8, addend: 0x0, symName: __ZZN5boost4json12basic_parserINS0_6detail7handlerEE13parse_literalILi2EEEPKcS7_St17integral_constantIiXT_EEE3loc_0, symObjAddr: 0x4F068, symBinAddr: 0x10006EDC8, symSize: 0x0 }
  - { offset: 0x76F4D, size: 0x8, addend: 0x0, symName: __ZZN5boost4json12basic_parserINS0_6detail7handlerEE13parse_literalILi1EEEPKcS7_St17integral_constantIiXT_EEE3loc, symObjAddr: 0x4F0B0, symBinAddr: 0x10006EE10, symSize: 0x0 }
  - { offset: 0x76F6D, size: 0x8, addend: 0x0, symName: __ZZN5boost4json12basic_parserINS0_6detail7handlerEE13parse_literalILi1EEEPKcS7_St17integral_constantIiXT_EEE3loc_0, symObjAddr: 0x4F098, symBinAddr: 0x10006EDF8, symSize: 0x0 }
  - { offset: 0x77044, size: 0x8, addend: 0x0, symName: __ZZN5boost4json12basic_parserINS0_6detail7handlerEE13parse_literalILi0EEEPKcS7_St17integral_constantIiXT_EEE3loc, symObjAddr: 0x4F0E0, symBinAddr: 0x10006EE40, symSize: 0x0 }
  - { offset: 0x77064, size: 0x8, addend: 0x0, symName: __ZZN5boost4json12basic_parserINS0_6detail7handlerEE13parse_literalILi0EEEPKcS7_St17integral_constantIiXT_EEE3loc_0, symObjAddr: 0x4F0C8, symBinAddr: 0x10006EE28, symSize: 0x0 }
  - { offset: 0x79736, size: 0x8, addend: 0x0, symName: __ZZN5boost4json14key_value_pairC4IJNS0_5valueERNS0_11storage_ptrEEEENS_4core17basic_string_viewIcEEDpOT_E3loc, symObjAddr: 0x4F0F8, symBinAddr: 0x10006EE58, symSize: 0x0 }
  - { offset: 0x79A3B, size: 0x8, addend: 0x0, symName: __ZZN5boost4json12basic_parserINS0_6detail7handlerEE13parse_commentILb0EEEPKcS7_St17integral_constantIbXT_EEbE3loc, symObjAddr: 0x4F110, symBinAddr: 0x10006EE70, symSize: 0x0 }
  - { offset: 0x79AD4, size: 0x8, addend: 0x0, symName: __ZZN5boost4json12basic_parserINS0_6detail7handlerEE11parse_valueILb0ELb1EEEPKcS7_St17integral_constantIbXT_EES8_IbXT0_EEbbE3loc, symObjAddr: 0x4F158, symBinAddr: 0x10006EEB8, symSize: 0x0 }
  - { offset: 0x79AF3, size: 0x8, addend: 0x0, symName: __ZZN5boost4json12basic_parserINS0_6detail7handlerEE11parse_valueILb0ELb1EEEPKcS7_St17integral_constantIbXT_EES8_IbXT0_EEbbE3loc_0, symObjAddr: 0x4F140, symBinAddr: 0x10006EEA0, symSize: 0x0 }
  - { offset: 0x79B27, size: 0x8, addend: 0x0, symName: __ZZN5boost4json12basic_parserINS0_6detail7handlerEE11parse_valueILb0ELb1EEEPKcS7_St17integral_constantIbXT_EES8_IbXT0_EEbbE3loc_2, symObjAddr: 0x4F128, symBinAddr: 0x10006EE88, symSize: 0x0 }
  - { offset: 0x79BC0, size: 0x8, addend: 0x0, symName: __ZZN5boost4json12basic_parserINS0_6detail7handlerEE11parse_valueILb0ELb0EEEPKcS7_St17integral_constantIbXT_EES8_IbXT0_EEbbE3loc, symObjAddr: 0x4F1B8, symBinAddr: 0x10006EF18, symSize: 0x0 }
  - { offset: 0x79BDF, size: 0x8, addend: 0x0, symName: __ZZN5boost4json12basic_parserINS0_6detail7handlerEE11parse_valueILb0ELb0EEEPKcS7_St17integral_constantIbXT_EES8_IbXT0_EEbbE3loc_0, symObjAddr: 0x4F1A0, symBinAddr: 0x10006EF00, symSize: 0x0 }
  - { offset: 0x79BFE, size: 0x8, addend: 0x0, symName: __ZZN5boost4json12basic_parserINS0_6detail7handlerEE11parse_valueILb0ELb0EEEPKcS7_St17integral_constantIbXT_EES8_IbXT0_EEbbE3loc_1, symObjAddr: 0x4F188, symBinAddr: 0x10006EEE8, symSize: 0x0 }
  - { offset: 0x79C1D, size: 0x8, addend: 0x0, symName: __ZZN5boost4json12basic_parserINS0_6detail7handlerEE11parse_valueILb0ELb0EEEPKcS7_St17integral_constantIbXT_EES8_IbXT0_EEbbE3loc_2, symObjAddr: 0x4F170, symBinAddr: 0x10006EED0, symSize: 0x0 }
  - { offset: 0x79CF3, size: 0x8, addend: 0x0, symName: __ZZN5boost4json12basic_parserINS0_6detail7handlerEE13parse_commentILb1EEEPKcS7_St17integral_constantIbXT_EEbE3loc, symObjAddr: 0x4F1D0, symBinAddr: 0x10006EF30, symSize: 0x0 }
  - { offset: 0x79D07, size: 0x8, addend: 0x0, symName: __ZN5boost4json12basic_parserINS0_6detail7handlerEE7suspendEPKcNS4_5stateE, symObjAddr: 0x29460, symBinAddr: 0x10002A7C0, symSize: 0xCC }
  - { offset: 0x79F1A, size: 0x8, addend: 0x0, symName: __ZZN5boost4json12basic_parserINS0_6detail7handlerEE11parse_valueILb1ELb1EEEPKcS7_St17integral_constantIbXT_EES8_IbXT0_EEbbE3loc, symObjAddr: 0x4F218, symBinAddr: 0x10006EF78, symSize: 0x0 }
  - { offset: 0x79F39, size: 0x8, addend: 0x0, symName: __ZZN5boost4json12basic_parserINS0_6detail7handlerEE11parse_valueILb1ELb1EEEPKcS7_St17integral_constantIbXT_EES8_IbXT0_EEbbE3loc_0, symObjAddr: 0x4F200, symBinAddr: 0x10006EF60, symSize: 0x0 }
  - { offset: 0x79F6D, size: 0x8, addend: 0x0, symName: __ZZN5boost4json12basic_parserINS0_6detail7handlerEE11parse_valueILb1ELb1EEEPKcS7_St17integral_constantIbXT_EES8_IbXT0_EEbbE3loc_2, symObjAddr: 0x4F1E8, symBinAddr: 0x10006EF48, symSize: 0x0 }
  - { offset: 0x7A006, size: 0x8, addend: 0x0, symName: __ZZN5boost4json12basic_parserINS0_6detail7handlerEE11parse_valueILb1ELb0EEEPKcS7_St17integral_constantIbXT_EES8_IbXT0_EEbbE3loc, symObjAddr: 0x4F278, symBinAddr: 0x10006EFD8, symSize: 0x0 }
  - { offset: 0x7A025, size: 0x8, addend: 0x0, symName: __ZZN5boost4json12basic_parserINS0_6detail7handlerEE11parse_valueILb1ELb0EEEPKcS7_St17integral_constantIbXT_EES8_IbXT0_EEbbE3loc_0, symObjAddr: 0x4F260, symBinAddr: 0x10006EFC0, symSize: 0x0 }
  - { offset: 0x7A044, size: 0x8, addend: 0x0, symName: __ZZN5boost4json12basic_parserINS0_6detail7handlerEE11parse_valueILb1ELb0EEEPKcS7_St17integral_constantIbXT_EES8_IbXT0_EEbbE3loc_1, symObjAddr: 0x4F248, symBinAddr: 0x10006EFA8, symSize: 0x0 }
  - { offset: 0x7A063, size: 0x8, addend: 0x0, symName: __ZZN5boost4json12basic_parserINS0_6detail7handlerEE11parse_valueILb1ELb0EEEPKcS7_St17integral_constantIbXT_EES8_IbXT0_EEbbE3loc_2, symObjAddr: 0x4F230, symBinAddr: 0x10006EF90, symSize: 0x0 }
  - { offset: 0x7A077, size: 0x8, addend: 0x0, symName: __ZN5boost4json12basic_parserINS0_6detail7handlerEE13maybe_suspendEPKcNS4_5stateE, symObjAddr: 0x293AC, symBinAddr: 0x10002A70C, symSize: 0xB4 }
  - { offset: 0x7A2CB, size: 0x8, addend: 0x0, symName: __ZZN5boost4json14key_value_pairC4IJDnRNS0_11storage_ptrEEEENS_4core17basic_string_viewIcEEDpOT_E3loc, symObjAddr: 0x4F290, symBinAddr: 0x10006EFF0, symSize: 0x0 }
  - { offset: 0x7A65F, size: 0x8, addend: 0x0, symName: __ZN5lapsa7ContextI7MyStateE9get_statsB5cxx11Ev, symObjAddr: 0x317A0, symBinAddr: 0x100032B00, symSize: 0x464 }
  - { offset: 0x7BDF5, size: 0x8, addend: 0x0, symName: __ZNSt17_Function_handlerIFvRN5lapsa7ContextI7MyStateEEEPS5_E9_M_invokeERKSt9_Any_dataS4_, symObjAddr: 0x5C0, symBinAddr: 0x100001920, symSize: 0x10 }
  - { offset: 0x7BE31, size: 0x8, addend: 0x0, symName: __ZNSt17_Function_handlerIFvRN5lapsa7ContextI7MyStateEEEPS5_E9_M_invokeERKSt9_Any_dataS4_, symObjAddr: 0x5C0, symBinAddr: 0x100001920, symSize: 0x10 }
  - { offset: 0x7BE5F, size: 0x8, addend: 0x0, symName: __ZNSt17_Function_handlerIFvRN5lapsa7ContextI7MyStateEEEPS5_E9_M_invokeERKSt9_Any_dataS4_, symObjAddr: 0x5C0, symBinAddr: 0x100001920, symSize: 0x10 }
  - { offset: 0x7C25F, size: 0x8, addend: 0x0, symName: __ZNSt11_Deque_baseIdSaIdEE17_M_initialize_mapEm, symObjAddr: 0x24DE0, symBinAddr: 0x100026140, symSize: 0x12C }
  - { offset: 0x7C774, size: 0x8, addend: 0x0, symName: __ZN8grafiins5GraphIN5tante6NeuronENS1_10ConnectionEE15dfs_cycle_foundEmRSt3setImSt4lessImESaImEESA_, symObjAddr: 0x248A0, symBinAddr: 0x100025C00, symSize: 0x2E8 }
  - { offset: 0x7D0C8, size: 0x8, addend: 0x0, symName: __ZN8grafiins5GraphIN5tante6NeuronENS1_10ConnectionEE8add_edgeES3_, symObjAddr: 0x242A0, symBinAddr: 0x100025600, symSize: 0x600 }
  - { offset: 0x7EC57, size: 0x8, addend: 0x0, symName: __ZNSt8_Rb_treeImmSt9_IdentityImESt4lessImESaImEE16_M_insert_uniqueIRKmEESt4pairISt17_Rb_tree_iteratorImEbEOT_, symObjAddr: 0x220D0, symBinAddr: 0x100023430, symSize: 0x140 }
  - { offset: 0x7F0DB, size: 0x8, addend: 0x0, symName: __ZN6garaza7StorageIN5tante10ConnectionEE5rnd_iEv, symObjAddr: 0x2D5C0, symBinAddr: 0x10002E920, symSize: 0x300 }
  - { offset: 0x7F125, size: 0x8, addend: 0x0, symName: __ZN6garaza7StorageIN5tante10ConnectionEE5rnd_iEv, symObjAddr: 0x2D5C0, symBinAddr: 0x10002E920, symSize: 0x300 }
  - { offset: 0x7FB8D, size: 0x8, addend: 0x0, symName: __ZN6garaza7StorageIN5tante10ConnectionEE4sizeEv, symObjAddr: 0x21F04, symBinAddr: 0x100023264, symSize: 0x1CC }
  - { offset: 0x7FBB3, size: 0x8, addend: 0x0, symName: __ZN6garaza7StorageIN5tante10ConnectionEE4sizeEv, symObjAddr: 0x21F04, symBinAddr: 0x100023264, symSize: 0x1CC }
  - { offset: 0x7FBF2, size: 0x8, addend: 0x0, symName: __ZN6garaza7StorageIN5tante10ConnectionEE4sizeEv, symObjAddr: 0x21F04, symBinAddr: 0x100023264, symSize: 0x1CC }
  - { offset: 0x80306, size: 0x8, addend: 0x0, symName: __ZN6garaza7StorageIN5tante6NeuronEE5rnd_iEv, symObjAddr: 0x2D8C0, symBinAddr: 0x10002EC20, symSize: 0x300 }
  - { offset: 0x80350, size: 0x8, addend: 0x0, symName: __ZN6garaza7StorageIN5tante6NeuronEE5rnd_iEv, symObjAddr: 0x2D8C0, symBinAddr: 0x10002EC20, symSize: 0x300 }
  - { offset: 0x80DA5, size: 0x8, addend: 0x0, symName: __ZN6garaza7StorageIN5tante6NeuronEE4sizeEv, symObjAddr: 0x21D40, symBinAddr: 0x1000230A0, symSize: 0x1C4 }
  - { offset: 0x80DCB, size: 0x8, addend: 0x0, symName: __ZN6garaza7StorageIN5tante6NeuronEE4sizeEv, symObjAddr: 0x21D40, symBinAddr: 0x1000230A0, symSize: 0x1C4 }
  - { offset: 0x80E0A, size: 0x8, addend: 0x0, symName: __ZN6garaza7StorageIN5tante6NeuronEE4sizeEv, symObjAddr: 0x21D40, symBinAddr: 0x1000230A0, symSize: 0x1C4 }
  - { offset: 0x822E6, size: 0x8, addend: 0x0, symName: __ZN5boost4json6detail8charconv6detail17from_chars_strtodIdEENS2_19from_chars_result_tIcEEPKcS8_RT_, symObjAddr: 0x21BCC, symBinAddr: 0x100022F2C, symSize: 0x174 }
  - { offset: 0x82436, size: 0x8, addend: 0x0, symName: __ZN5boost4json6detail8charconv6detail6parserIyxEENS2_19from_chars_result_tIcEEPKcS8_RbRT_RT0_NS2_12chars_formatE, symObjAddr: 0x2B204, symBinAddr: 0x10002C564, symSize: 0x97C }
  - { offset: 0x82BDB, size: 0x8, addend: 0x0, symName: __ZN5boost4json6object12emplace_implIJRNS_4core17basic_string_viewIcEENS0_5valueEEEESt4pairIPNS0_14key_value_pairEbES5_DpOT_, symObjAddr: 0x1FBE0, symBinAddr: 0x100020F40, symSize: 0x360 }
  - { offset: 0x83753, size: 0x8, addend: 0x0, symName: __ZN5boost4json10serializer12write_numberILb0EEEbRNS0_6detail6streamE, symObjAddr: 0x1EFC0, symBinAddr: 0x100020320, symSize: 0x324 }
  - { offset: 0x83CF9, size: 0x8, addend: 0x0, symName: __ZN5boost4json10serializer11write_falseILb0EEEbRNS0_6detail6streamE, symObjAddr: 0x1EE60, symBinAddr: 0x1000201C0, symSize: 0x160 }
  - { offset: 0x8403D, size: 0x8, addend: 0x0, symName: __ZN5boost4json10serializer10write_trueILb0EEEbRNS0_6detail6streamE, symObjAddr: 0x1ED40, symBinAddr: 0x1000200A0, symSize: 0x120 }
  - { offset: 0x84366, size: 0x8, addend: 0x0, symName: __ZN5boost4json10serializer11write_falseILb1EEEbRNS0_6detail6streamE, symObjAddr: 0x1E3E8, symBinAddr: 0x10001F748, symSize: 0x158 }
  - { offset: 0x8465A, size: 0x8, addend: 0x0, symName: __ZN5boost4json10serializer10write_trueILb1EEEbRNS0_6detail6streamE, symObjAddr: 0x1E2C4, symBinAddr: 0x10001F624, symSize: 0x124 }
  - { offset: 0x848E5, size: 0x8, addend: 0x0, symName: __ZN5boost4json10serializer12write_numberILb1EEEbRNS0_6detail6streamE, symObjAddr: 0x1E040, symBinAddr: 0x10001F3A0, symSize: 0x284 }
  - { offset: 0x8590A, size: 0x8, addend: 0x0, symName: __ZN5lapsa12StateMachineI7MyStateE3runEv, symObjAddr: 0x1DE6C, symBinAddr: 0x10001F1CC, symSize: 0x1D4 }
  - { offset: 0x85EC6, size: 0x8, addend: 0x0, symName: __ZN5lapsa17create_stats_fileI7MyStateEEvRNS_7ContextIT_EE, symObjAddr: 0x31C04, symBinAddr: 0x100032F64, symSize: 0x22C }
  - { offset: 0x86331, size: 0x8, addend: 0x0, symName: __ZN5lapsa11print_statsI7MyStateEEvRNS_7ContextIT_EE, symObjAddr: 0x31E30, symBinAddr: 0x100033190, symSize: 0x70 }
  - { offset: 0x86522, size: 0x8, addend: 0x0, symName: __ZN5lapsa18clear_run_progressI7MyStateEEvRNS_7ContextIT_EE, symObjAddr: 0x1CC4, symBinAddr: 0x100003024, symSize: 0x3C }
  - { offset: 0x86555, size: 0x8, addend: 0x0, symName: __ZN5lapsa18clear_run_progressI7MyStateEEvRNS_7ContextIT_EE, symObjAddr: 0x1CC4, symBinAddr: 0x100003024, symSize: 0x3C }
  - { offset: 0x865E7, size: 0x8, addend: 0x0, symName: __ZN5lapsa18print_run_progressI7MyStateEEvRNS_7ContextIT_EE, symObjAddr: 0x31EA0, symBinAddr: 0x100033200, symSize: 0x484 }
  - { offset: 0x87279, size: 0x8, addend: 0x0, symName: __Z19create_report_filesI7MyStateEvRN5lapsa7ContextIT_EE, symObjAddr: 0x28790, symBinAddr: 0x100029AF0, symSize: 0xBD4 }
  - { offset: 0x8969A, size: 0x8, addend: 0x0, symName: __ZN5lapsa16decide_to_reportI7MyStateEEvRNS_7ContextIT_EE, symObjAddr: 0xD80, symBinAddr: 0x1000020E0, symSize: 0xA8 }
  - { offset: 0x89912, size: 0x8, addend: 0x0, symName: __ZN5lapsa14check_run_doneI7MyStateEEvRNS_7ContextIT_EE, symObjAddr: 0x5D0, symBinAddr: 0x100001930, symSize: 0xB0 }
  - { offset: 0x89950, size: 0x8, addend: 0x0, symName: __ZN5lapsa12update_stateI7MyStateEEvRNS_7ContextIT_EE, symObjAddr: 0x32540, symBinAddr: 0x1000338A0, symSize: 0x188 }
  - { offset: 0x89C05, size: 0x8, addend: 0x0, symName: __ZN5lapsa12cool_at_rateI7MyStateEEvRNS_7ContextIT_EE, symObjAddr: 0x9E0, symBinAddr: 0x100001D40, symSize: 0x140 }
  - { offset: 0x89C43, size: 0x8, addend: 0x0, symName: __ZN5lapsa18decide_to_cool_smaI7MyStateEEvRNS_7ContextIT_EE, symObjAddr: 0x276C, symBinAddr: 0x100003ACC, symSize: 0x234 }
  - { offset: 0x89F0E, size: 0x8, addend: 0x0, symName: __ZN5lapsa13record_energyI7MyStateEEvRNS_7ContextIT_EE, symObjAddr: 0x368A8, symBinAddr: 0x100037C08, symSize: 0x248 }
  - { offset: 0x8A3AC, size: 0x8, addend: 0x0, symName: __ZN5lapsa15check_init_doneI7MyStateEEvRNS_7ContextIT_EE, symObjAddr: 0x58C, symBinAddr: 0x1000018EC, symSize: 0x34 }
  - { offset: 0x8A3DD, size: 0x8, addend: 0x0, symName: __ZN5lapsa15check_init_doneI7MyStateEEvRNS_7ContextIT_EE, symObjAddr: 0x58C, symBinAddr: 0x1000018EC, symSize: 0x34 }
  - { offset: 0x8A3FB, size: 0x8, addend: 0x0, symName: __ZN5lapsa17init_run_progressI7MyStateEEvRNS_7ContextIT_EE, symObjAddr: 0x560, symBinAddr: 0x1000018C0, symSize: 0x2C }
  - { offset: 0x8A42D, size: 0x8, addend: 0x0, symName: __ZN5lapsa30select_init_temperature_as_maxI7MyStateEEvRNS_7ContextIT_EE, symObjAddr: 0x680, symBinAddr: 0x1000019E0, symSize: 0x128 }
  - { offset: 0x8A46A, size: 0x8, addend: 0x0, symName: __ZN5lapsa30select_init_temperature_as_maxI7MyStateEEvRNS_7ContextIT_EE, symObjAddr: 0x680, symBinAddr: 0x1000019E0, symSize: 0x128 }
  - { offset: 0x8A539, size: 0x8, addend: 0x0, symName: __ZN5lapsa23record_init_temperatureI7MyStateEEvRNS_7ContextIT_EE, symObjAddr: 0x32448, symBinAddr: 0x1000337A8, symSize: 0xF8 }
  - { offset: 0x8A664, size: 0x8, addend: 0x0, symName: __ZN5lapsa17propose_new_stateI7MyStateEEvRNS_7ContextIT_EE, symObjAddr: 0x30200, symBinAddr: 0x100031560, symSize: 0x460 }
  - { offset: 0x8B69F, size: 0x8, addend: 0x0, symName: __Z20update_training_dataI7MyStateEvRN5lapsa7ContextIT_EE, symObjAddr: 0x36BD0, symBinAddr: 0x100037F30, symSize: 0x1B8 }
  - { offset: 0x8BA28, size: 0x8, addend: 0x0, symName: __ZN5lapsa15randomize_stateI7MyStateEEvRNS_7ContextIT_EE, symObjAddr: 0x2FD40, symBinAddr: 0x1000310A0, symSize: 0x60 }
  - { offset: 0x8BAB6, size: 0x8, addend: 0x0, symName: __Z18init_training_dataI7MyStateEvRN5lapsa7ContextIT_EE, symObjAddr: 0x36D88, symBinAddr: 0x1000380E8, symSize: 0x158 }
  - { offset: 0x8BC65, size: 0x8, addend: 0x0, symName: __ZN5lapsa18init_report_linearI7MyStateEEvRNS_7ContextIT_EE, symObjAddr: 0x36448, symBinAddr: 0x1000377A8, symSize: 0x2A0 }
  - { offset: 0x8C295, size: 0x8, addend: 0x0, symName: __ZNSt5dequeIdSaIdEED1Ev, symObjAddr: 0x25C0, symBinAddr: 0x100003920, symSize: 0x6C }
  - { offset: 0x8C5F8, size: 0x8, addend: 0x0, symName: __ZN10rododendrs5rrmseISt6vectorSt5dequeEEdRKT_IJdEERKT0_IJdEE, symObjAddr: 0x1DD20, symBinAddr: 0x10001F080, symSize: 0x14C }
  - { offset: 0x8CA59, size: 0x8, addend: 0x0, symName: __ZN8grafiins3DAGIN5tante6NeuronENS1_10ConnectionEE8add_edgeES3_, symObjAddr: 0x24B88, symBinAddr: 0x100025EE8, symSize: 0x258 }
  - { offset: 0x8D41B, size: 0x8, addend: 0x0, symName: __ZN8grafiins5GraphIN5tante6NeuronENS1_10ConnectionEE13remove_vertexEm, symObjAddr: 0x237C0, symBinAddr: 0x100024B20, symSize: 0x700 }
  - { offset: 0x8E266, size: 0x8, addend: 0x0, symName: __ZN8grafiins6VertexC2ERKS0_, symObjAddr: 0x1C764, symBinAddr: 0x10001DAC4, symSize: 0x1FC }
  - { offset: 0x8EC7B, size: 0x8, addend: 0x0, symName: __ZN8grafiins5GraphIN5tante6NeuronENS1_10ConnectionEE6to_csvERKNSt7__cxx1112basic_stringIcSt11char_traitsIcESaIcEEESC_, symObjAddr: 0x253A0, symBinAddr: 0x100026700, symSize: 0xEE0 }
  - { offset: 0x93271, size: 0x8, addend: 0x0, symName: __ZN6garaza7StorageImE5rnd_iEv, symObjAddr: 0x2D448, symBinAddr: 0x10002E7A8, symSize: 0x178 }
  - { offset: 0x939C8, size: 0x8, addend: 0x0, symName: __ZN8grafiins5GraphIN5tante6NeuronENS1_10ConnectionEE17are_connected_anyESt3setImSt4lessImESaImEES9_, symObjAddr: 0x22980, symBinAddr: 0x100023CE0, symSize: 0x6E0 }
  - { offset: 0x953A1, size: 0x8, addend: 0x0, symName: __ZNSt3mapINSt7__cxx1112basic_stringIcSt11char_traitsIcESaIcEEES5_St4lessIS5_ESaISt4pairIKS5_S5_EEEixEOS5_, symObjAddr: 0x1BAD0, symBinAddr: 0x10001CE30, symSize: 0x45C }
  - { offset: 0x96B37, size: 0x8, addend: 0x0, symName: __ZZNK5boost4json5value9to_numberImEENSt9enable_ifIXaasrSt13is_arithmeticIT_E5valuentsrSt7is_sameIS5_bE5valueES5_E4typeEvE3loc, symObjAddr: 0x4F2A8, symBinAddr: 0x10006F008, symSize: 0x0 }
  - { offset: 0x96B91, size: 0x8, addend: 0x0, symName: __ZZNK5boost4json5value9to_numberIdEENSt9enable_ifIXaasrSt13is_arithmeticIT_E5valuentsrSt7is_sameIS5_bE5valueES5_E4typeEvE3loc, symObjAddr: 0x4F2C0, symBinAddr: 0x10006F020, symSize: 0x0 }
  - { offset: 0x97118, size: 0x8, addend: 0x0, symName: __ZN5boost15throw_exceptionINS_6system12system_errorEEEvRKT_RKNS_15source_locationE, symObjAddr: 0x4D404, symBinAddr: 0x1000486D8, symSize: 0x90 }
  - { offset: 0x9730E, size: 0x8, addend: 0x0, symName: __ZN5boost10wrapexceptINS_6system12system_errorEED0Ev, symObjAddr: 0x1EA0, symBinAddr: 0x100003200, symSize: 0x80 }
  - { offset: 0x97330, size: 0x8, addend: 0x0, symName: __ZN5boost10wrapexceptINS_6system12system_errorEED0Ev, symObjAddr: 0x1EA0, symBinAddr: 0x100003200, symSize: 0x80 }
  - { offset: 0x973DE, size: 0x8, addend: 0x0, symName: __ZN5boost10wrapexceptINS_6system12system_errorEED1Ev, symObjAddr: 0x920, symBinAddr: 0x100001C80, symSize: 0x68 }
  - { offset: 0x97C01, size: 0x8, addend: 0x0, symName: __ZN5boost4json10serializer12write_stringILb0EEEbRNS0_6detail6streamE, symObjAddr: 0x115E0, symBinAddr: 0x100012940, symSize: 0x444 }
  - { offset: 0x97D0B, size: 0x8, addend: 0x0, symName: __ZZN5boost4json10serializer12write_stringILb0EEEbRNS0_6detail6streamEE3hex, symObjAddr: 0x4FB70, symBinAddr: 0x100050CE0, symSize: 0x0 }
  - { offset: 0x97D26, size: 0x8, addend: 0x0, symName: __ZZN5boost4json10serializer12write_stringILb0EEEbRNS0_6detail6streamEE3esc, symObjAddr: 0x4FA68, symBinAddr: 0x100050BD8, symSize: 0x0 }
  - { offset: 0x982C1, size: 0x8, addend: 0x0, symName: __ZN5boost4json10serializer12write_stringILb1EEEbRNS0_6detail6streamE, symObjAddr: 0x1112C, symBinAddr: 0x10001248C, symSize: 0x398 }
  - { offset: 0x983CB, size: 0x8, addend: 0x0, symName: __ZZN5boost4json10serializer12write_stringILb1EEEbRNS0_6detail6streamEE3hex, symObjAddr: 0x4FC90, symBinAddr: 0x100050E00, symSize: 0x0 }
  - { offset: 0x983E6, size: 0x8, addend: 0x0, symName: __ZZN5boost4json10serializer12write_stringILb1EEEbRNS0_6detail6streamEE3esc, symObjAddr: 0x4FB88, symBinAddr: 0x100050CF8, symSize: 0x0 }
  - { offset: 0x9890E, size: 0x8, addend: 0x0, symName: __ZN5boost4json10serializer12write_objectILb0EEEbRNS0_6detail6streamE, symObjAddr: 0x1F4E0, symBinAddr: 0x100020840, symSize: 0x3A8 }
  - { offset: 0x9904F, size: 0x8, addend: 0x0, symName: __ZN5boost4json10serializer12write_objectILb1EEEbRNS0_6detail6streamE, symObjAddr: 0x1E6B0, symBinAddr: 0x10001FA10, symSize: 0x390 }
  - { offset: 0x999AD, size: 0x8, addend: 0x0, symName: __ZN5boost4json10serializer11write_arrayILb0EEEbRNS0_6detail6streamE, symObjAddr: 0x1F888, symBinAddr: 0x100020BE8, symSize: 0x358 }
  - { offset: 0x9A1FA, size: 0x8, addend: 0x0, symName: __ZN5boost4json10serializer11write_arrayILb1EEEbRNS0_6detail6streamE, symObjAddr: 0x1EA40, symBinAddr: 0x10001FDA0, symSize: 0x300 }
  - { offset: 0x9A946, size: 0x8, addend: 0x0, symName: __ZN5boost4json10serializer11write_valueILb0EEEbRNS0_6detail6streamE, symObjAddr: 0x1F2E4, symBinAddr: 0x100020644, symSize: 0x1FC }
  - { offset: 0x9ABC0, size: 0x8, addend: 0x0, symName: __ZN5boost4json10serializer11write_valueILb0EEEbRNS0_6detail6streamE, symObjAddr: 0x1F2E4, symBinAddr: 0x100020644, symSize: 0x1FC }
  - { offset: 0x9ABE2, size: 0x8, addend: 0x0, symName: __ZN5boost4json10serializer11write_valueILb1EEEbRNS0_6detail6streamE, symObjAddr: 0x1E540, symBinAddr: 0x10001F8A0, symSize: 0x170 }
  - { offset: 0x9AF89, size: 0x8, addend: 0x0, symName: __ZN5boost4json6detail5stack4pushINS0_10serializer5stateEEEvRKT_, symObjAddr: 0x10FC0, symBinAddr: 0x100012320, symSize: 0x50 }
  - { offset: 0x9B0DF, size: 0x8, addend: 0x0, symName: __ZN5boost4json6detail12walk_pointerINS0_5valueEZNS3_14set_at_pointerENS_4core17basic_string_viewIcEENS0_9value_refERNS_6system10error_codeERKNS0_19set_pointer_optionsEEUlRNS0_6objectENS1_13pointer_tokenEE_ZNS3_14set_at_pointerES6_S7_SA_SD_EUlRNS0_5arrayEmSA_E_ZNS3_14set_at_pointerES6_S7_SA_SD_EUlRS3_S6_E_EEPT_RSN_S6_SA_T0_T1_T2_, symObjAddr: 0x1A3A0, symBinAddr: 0x10001B700, symSize: 0x6CC }
  - { offset: 0x9B1D1, size: 0x8, addend: 0x0, symName: __ZZN5boost4json6detail12walk_pointerINS0_5valueEZNS3_14set_at_pointerENS_4core17basic_string_viewIcEENS0_9value_refERNS_6system10error_codeERKNS0_19set_pointer_optionsEEUlRNS0_6objectENS1_13pointer_tokenEE_ZNS3_14set_at_pointerES6_S7_SA_SD_EUlRNS0_5arrayEmSA_E_ZNS3_14set_at_pointerES6_S7_SA_SD_EUlRS3_S6_E_EEPT_RSN_S6_SA_T0_T1_T2_E3loc, symObjAddr: 0x4F2F0, symBinAddr: 0x10006F050, symSize: 0x0 }
  - { offset: 0x9BC9A, size: 0x8, addend: 0x0, symName: __ZZN5boost4json6detail12walk_pointerINS0_5valueEZNS3_14set_at_pointerENS_4core17basic_string_viewIcEENS0_9value_refERNS_6system10error_codeERKNS0_19set_pointer_optionsEEUlRNS0_6objectENS1_13pointer_tokenEE_ZNS3_14set_at_pointerES6_S7_SA_SD_EUlRNS0_5arrayEmSA_E_ZNS3_14set_at_pointerES6_S7_SA_SD_EUlRS3_S6_E_EEPT_RSN_S6_SA_T0_T1_T2_E3loc_0, symObjAddr: 0x4F2D8, symBinAddr: 0x10006F038, symSize: 0x0 }
  - { offset: 0x9C390, size: 0x8, addend: 0x0, symName: __ZZN5boost4json6detail12walk_pointerIKNS0_5valueEZNKS3_12find_pointerENS_4core17basic_string_viewIcEERNS_6system10error_codeEEUlRKNS0_6objectENS1_13pointer_tokenEE_ZNKS3_12find_pointerES7_SA_EUlRKNS0_5arrayEmSA_E_ZNKS3_12find_pointerES7_SA_EUlRS4_S7_E_EEPT_RSM_S7_SA_T0_T1_T2_E3loc, symObjAddr: 0x4F320, symBinAddr: 0x10006F080, symSize: 0x0 }
  - { offset: 0x9C3E9, size: 0x8, addend: 0x0, symName: __ZZN5boost4json6detail12walk_pointerIKNS0_5valueEZNKS3_12find_pointerENS_4core17basic_string_viewIcEERNS_6system10error_codeEEUlRKNS0_6objectENS1_13pointer_tokenEE_ZNKS3_12find_pointerES7_SA_EUlRKNS0_5arrayEmSA_E_ZNKS3_12find_pointerES7_SA_EUlRS4_S7_E_EEPT_RSM_S7_SA_T0_T1_T2_E3loc_0, symObjAddr: 0x4F308, symBinAddr: 0x10006F068, symSize: 0x0 }
  - { offset: 0x9C3F9, size: 0x8, addend: 0x0, symName: __ZN5boost4json6detail14find_in_objectINS1_13pointer_tokenEEESt4pairIPNS0_14key_value_pairEmERKNS0_6objectET_, symObjAddr: 0x10820, symBinAddr: 0x100011B80, symSize: 0x320 }
  - { offset: 0x9C97F, size: 0x8, addend: 0x0, symName: __ZN5boost4json12basic_parserINS0_6detail7handlerEE10write_someEbPKcmRNS_6system10error_codeE, symObjAddr: 0x42800, symBinAddr: 0x100043B60, symSize: 0x620 }
  - { offset: 0x9CA29, size: 0x8, addend: 0x0, symName: __ZZN5boost4json12basic_parserINS0_6detail7handlerEE10write_someEbPKcmRNS_6system10error_codeEE3loc, symObjAddr: 0x4F350, symBinAddr: 0x10006F0B0, symSize: 0x0 }
  - { offset: 0x9CB54, size: 0x8, addend: 0x0, symName: __ZZN5boost4json12basic_parserINS0_6detail7handlerEE10write_someEbPKcmRNS_6system10error_codeEE3loc_0, symObjAddr: 0x4F338, symBinAddr: 0x10006F098, symSize: 0x0 }
  - { offset: 0x9D6F1, size: 0x8, addend: 0x0, symName: __ZN5boost4json6object8do_eraseIZNS1_12stable_eraseEPKNS0_14key_value_pairEEUlPS3_E_ZNS1_12stable_eraseES5_EUlS6_E0_EES6_S5_T_T0_, symObjAddr: 0x92AC, symBinAddr: 0x10000A60C, symSize: 0x304 }
  - { offset: 0x9DE91, size: 0x8, addend: 0x0, symName: __ZN5boost4json6object8do_eraseIZNS1_5eraseEPKNS0_14key_value_pairEEUlPS3_E_ZNS1_5eraseES5_EUlS6_E0_EES6_S5_T_T0_, symObjAddr: 0x8F20, symBinAddr: 0x10000A280, symSize: 0x300 }
  - { offset: 0x9DF11, size: 0x8, addend: 0x0, symName: __ZN5boost4json6object8do_eraseIZNS1_5eraseEPKNS0_14key_value_pairEEUlPS3_E_ZNS1_5eraseES5_EUlS6_E0_EES6_S5_T_T0_, symObjAddr: 0x8F20, symBinAddr: 0x10000A280, symSize: 0x300 }
  - { offset: 0x9E630, size: 0x8, addend: 0x0, symName: __ZZN5boost4json14key_value_pairC4IJNS0_5valueEEEENS_4core17basic_string_viewIcEEDpOT_E3loc, symObjAddr: 0x4F368, symBinAddr: 0x10006F0C8, symSize: 0x0 }
  - { offset: 0x9E78E, size: 0x8, addend: 0x0, symName: __ZN5boost10wrapexceptISt9bad_allocED0Ev, symObjAddr: 0x1C60, symBinAddr: 0x100002FC0, symSize: 0x64 }
  - { offset: 0x9E7B0, size: 0x8, addend: 0x0, symName: __ZN5boost10wrapexceptISt9bad_allocED0Ev, symObjAddr: 0x1C60, symBinAddr: 0x100002FC0, symSize: 0x64 }
  - { offset: 0x9E83A, size: 0x8, addend: 0x0, symName: __ZN5boost10wrapexceptISt9bad_allocED1Ev, symObjAddr: 0x7A8, symBinAddr: 0x100001B08, symSize: 0x58 }
  - { offset: 0x9EAB8, size: 0x8, addend: 0x0, symName: __ZN5boost4json10serializer10write_nullILb0EEEbRNS0_6detail6streamE, symObjAddr: 0x114C4, symBinAddr: 0x100012824, symSize: 0x11C }
  - { offset: 0x9ED97, size: 0x8, addend: 0x0, symName: __ZN5boost4json10serializer10write_nullILb1EEEbRNS0_6detail6streamE, symObjAddr: 0x11010, symBinAddr: 0x100012370, symSize: 0x11C }
  - { offset: 0x9F4FB, size: 0x8, addend: 0x0, symName: __ZNSt7__cxx1112basic_stringIcSt11char_traitsIcESaIcEE9_M_mutateEmmPKcm, symObjAddr: 0xF220, symBinAddr: 0x100010580, symSize: 0x190 }
  - { offset: 0x9FB1D, size: 0x8, addend: 0x0, symName: __ZNSt23mersenne_twister_engineIyLm64ELm312ELm156ELm31ELy13043109905998158313ELm29ELy6148914691236517205ELm17ELy8202884508482404352ELm37ELy18444473444759240704ELm43ELy6364136223846793005EE4seedISt8seed_seqEENSt9enable_ifIXsrSt6__and_IJSt6__not_ISt7is_sameINSt9remove_cvINSt16remove_referenceIT_E4typeEE4typeES0_EESt11is_unsignedINS9_11result_typeEES5_ISt14is_convertibleIS9_yEEEE5valueEvE4typeERS9_, symObjAddr: 0xED90, symBinAddr: 0x1000100F0, symSize: 0x3B8 }
  - { offset: 0xA00C5, size: 0x8, addend: 0x0, symName: __ZNSt7__cxx1112basic_stringIcSt11char_traitsIcESaIcEE9_M_assignERKS4_, symObjAddr: 0xEC50, symBinAddr: 0x10000FFB0, symSize: 0x140 }
  - { offset: 0xA09AE, size: 0x8, addend: 0x0, symName: __ZNSt7__cxx1112basic_stringIcSt11char_traitsIcESaIcEEC1EOS4_, symObjAddr: 0xEBC4, symBinAddr: 0x10000FF24, symSize: 0x8C }
  - { offset: 0xA0BC6, size: 0x8, addend: 0x0, symName: __ZNSt7__cxx1112basic_stringIcSt11char_traitsIcESaIcEED1Ev, symObjAddr: 0x29A0, symBinAddr: 0x100003D00, symSize: 0x24 }
  - { offset: 0xA0BE8, size: 0x8, addend: 0x0, symName: __ZNSt7__cxx1112basic_stringIcSt11char_traitsIcESaIcEED1Ev, symObjAddr: 0x29A0, symBinAddr: 0x100003D00, symSize: 0x24 }
  - { offset: 0xA0C08, size: 0x8, addend: 0x0, symName: __ZNSt7__cxx1112basic_stringIcSt11char_traitsIcESaIcEED1Ev, symObjAddr: 0x29A0, symBinAddr: 0x100003D00, symSize: 0x24 }
  - { offset: 0xA0C28, size: 0x8, addend: 0x0, symName: __ZNSt7__cxx1112basic_stringIcSt11char_traitsIcESaIcEED1Ev, symObjAddr: 0x29A0, symBinAddr: 0x100003D00, symSize: 0x24 }
  - { offset: 0xA0D2C, size: 0x8, addend: 0x0, symName: _main, symObjAddr: 0x58E20, symBinAddr: 0x100048780, symSize: 0x10B0 }
  - { offset: 0xA47F4, size: 0x8, addend: 0x0, symName: __ZN5lapsa12StateMachineI7MyStateED1Ev, symObjAddr: 0xE880, symBinAddr: 0x10000FBE0, symSize: 0x344 }
  - { offset: 0xA5B5A, size: 0x8, addend: 0x0, symName: __ZN7MyStateD0Ev, symObjAddr: 0x39C4, symBinAddr: 0x100004D24, symSize: 0x28 }
  - { offset: 0xA5B85, size: 0x8, addend: 0x0, symName: __ZN7MyStateD1Ev, symObjAddr: 0x36C8, symBinAddr: 0x100004A28, symSize: 0x2FC }
  - { offset: 0xA7F66, size: 0x8, addend: 0x0, symName: __ZN7MyState10get_energyEv, symObjAddr: 0x30660, symBinAddr: 0x1000319C0, symSize: 0x1140 }
  - { offset: 0xAC217, size: 0x8, addend: 0x0, symName: __ZN5tante7Network16_update_graphvizEv, symObjAddr: 0x267C0, symBinAddr: 0x100027B20, symSize: 0x1FD0 }
  - { offset: 0xB5502, size: 0x8, addend: 0x0, symName: __ZN5tante7Network11_add_outputEv, symObjAddr: 0x29D10, symBinAddr: 0x10002B070, symSize: 0x69C }
  - { offset: 0xB6F4A, size: 0x8, addend: 0x0, symName: __ZN5tante7Network15apply_operationENS_9OperationE, symObjAddr: 0x2DD40, symBinAddr: 0x10002F0A0, symSize: 0x1120 }
  - { offset: 0xB9003, size: 0x8, addend: 0x0, symName: __ZN5tante7Network16restore_randomlyEv, symObjAddr: 0x2EE60, symBinAddr: 0x1000301C0, symSize: 0xEA4 }
  - { offset: 0xBD46B, size: 0x8, addend: 0x0, symName: __ZN5tante7Network14is_operationalEv, symObjAddr: 0x23060, symBinAddr: 0x1000243C0, symSize: 0x760 }
  - { offset: 0xC02EB, size: 0x8, addend: 0x0, symName: __ZN6garaza7StorageImED1Ev, symObjAddr: 0xE820, symBinAddr: 0x10000FB80, symSize: 0x60 }
  - { offset: 0xC070B, size: 0x8, addend: 0x0, symName: __ZN8grafiins5GraphIN5tante6NeuronENS1_10ConnectionEED2Ev, symObjAddr: 0xE6C0, symBinAddr: 0x10000FA20, symSize: 0x160 }
  - { offset: 0xC16AB, size: 0x8, addend: 0x0, symName: __ZN5tante8SettingsD1Ev, symObjAddr: 0x3188, symBinAddr: 0x1000044E8, symSize: 0xD8 }
  - { offset: 0xC2056, size: 0x8, addend: 0x0, symName: __ZN5tante8SettingsC1ERKNSt7__cxx1112basic_stringIcSt11char_traitsIcESaIcEEES8_, symObjAddr: 0x45008, symBinAddr: 0x100046368, symSize: 0xBE0 }
  - { offset: 0xC30A6, size: 0x8, addend: 0x0, symName: __ZN5tante6Neuron9serializeB5cxx11Ev, symObjAddr: 0x1BF2C, symBinAddr: 0x10001D28C, symSize: 0x414 }
  - { offset: 0xC459B, size: 0x8, addend: 0x0, symName: __ZN8grafiins6VertexD2Ev, symObjAddr: 0xE600, symBinAddr: 0x10000F960, symSize: 0xC0 }
  - { offset: 0xC4FA9, size: 0x8, addend: 0x0, symName: __ZN5lapsa5State6changeEv, symObjAddr: 0x3040, symBinAddr: 0x1000043A0, symSize: 0xA4 }
  - { offset: 0xC5123, size: 0x8, addend: 0x0, symName: __ZN5lapsa5State9randomizeEv, symObjAddr: 0x30E4, symBinAddr: 0x100004444, symSize: 0xA4 }
  - { offset: 0xC529D, size: 0x8, addend: 0x0, symName: __ZN5lapsa5State10get_energyEv, symObjAddr: 0x2ED0, symBinAddr: 0x100004230, symSize: 0xA0 }
  - { offset: 0xC541B, size: 0x8, addend: 0x0, symName: __ZN5lapsa5StateD0Ev, symObjAddr: 0x2B84, symBinAddr: 0x100003EE4, symSize: 0x7C }
  - { offset: 0xC543D, size: 0x8, addend: 0x0, symName: __ZN5lapsa5StateD0Ev, symObjAddr: 0x2B84, symBinAddr: 0x100003EE4, symSize: 0x7C }
  - { offset: 0xC5790, size: 0x8, addend: 0x0, symName: __ZN5lapsa5StateD1Ev, symObjAddr: 0x2B10, symBinAddr: 0x100003E70, symSize: 0x74 }
  - { offset: 0xC5BB9, size: 0x8, addend: 0x0, symName: __ZN5lapsa8SettingsC1ERKNSt7__cxx1112basic_stringIcSt11char_traitsIcESaIcEEES8_, symObjAddr: 0x44BC0, symBinAddr: 0x100045F20, symSize: 0x448 }
  - { offset: 0xC707A, size: 0x8, addend: 0x0, symName: __ZN5lapsa8Progress6updateEmNSt7__cxx1112basic_stringIcSt11char_traitsIcESaIcEEE, symObjAddr: 0x26280, symBinAddr: 0x1000275E0, symSize: 0x540 }
  - { offset: 0xC7130, size: 0x8, addend: 0x0, symName: __ZZN5lapsa8Progress6updateEmNSt7__cxx1112basic_stringIcSt11char_traitsIcESaIcEEEE14next_update_in, symObjAddr: 0x5A390, symBinAddr: 0x100070008, symSize: 0x0 }
  - { offset: 0xC7F71, size: 0x8, addend: 0x0, symName: __ZN5lapsa24seconds_to_hhmmss_stringB5cxx11Ed, symObjAddr: 0x1B504, symBinAddr: 0x10001C864, symSize: 0x5CC }
  - { offset: 0xC8F41, size: 0x8, addend: 0x0, symName: __ZN7iestade16string_from_jsonERKNSt7__cxx1112basic_stringIcSt11char_traitsIcESaIcEEES7_bS5_, symObjAddr: 0x44860, symBinAddr: 0x100045BC0, symSize: 0x24C }
  - { offset: 0xC984D, size: 0x8, addend: 0x0, symName: __ZN7iestade16double_from_jsonERKNSt7__cxx1112basic_stringIcSt11char_traitsIcESaIcEEES7_bd, symObjAddr: 0x4460C, symBinAddr: 0x10004596C, symSize: 0x114 }
  - { offset: 0xC9953, size: 0x8, addend: 0x0, symName: __ZN7iestade14bool_from_jsonERKNSt7__cxx1112basic_stringIcSt11char_traitsIcESaIcEEES7_bb, symObjAddr: 0x44540, symBinAddr: 0x1000458A0, symSize: 0xCC }
  - { offset: 0xC9A42, size: 0x8, addend: 0x0, symName: __ZN7iestade15value_from_jsonERKNSt7__cxx1112basic_stringIcSt11char_traitsIcESaIcEEES7_, symObjAddr: 0x43860, symBinAddr: 0x100044BC0, symSize: 0xCE0 }
  - { offset: 0xCCB9C, size: 0x8, addend: 0x0, symName: __ZN5boost4json6detail8charconv6detail13errno_to_errcEi, symObjAddr: 0xE5E0, symBinAddr: 0x10000F940, symSize: 0x20 }
  - { offset: 0xCCDD1, size: 0x8, addend: 0x0, symName: __ZZN5boost4json6detail8charconv6detail10fast_float6detail17rounds_to_nearestEvE4fmin, symObjAddr: 0x5A3B8, symBinAddr: 0x100070030, symSize: 0x0 }
  - { offset: 0xCD4C8, size: 0x8, addend: 0x0, symName: __ZN5boost4json6detail3ryu14d2s_buffered_nEdPcb, symObjAddr: 0xDB00, symBinAddr: 0x10000EE60, symSize: 0x94C }
  - { offset: 0xCD5D7, size: 0x8, addend: 0x0, symName: __ZN5boost4json6detail3ryu14d2s_buffered_nEdPcb, symObjAddr: 0xDB00, symBinAddr: 0x10000EE60, symSize: 0x94C }
  - { offset: 0xCDB4B, size: 0x8, addend: 0x0, symName: __ZN5boost4json6detail3ryu6detail3d2dEyj, symObjAddr: 0xD3F0, symBinAddr: 0x10000E750, symSize: 0x710 }
  - { offset: 0xCE6B3, size: 0x8, addend: 0x0, symName: __ZZN5boost4json6detail3ryu6detail11DIGIT_TABLEEvE3arr, symObjAddr: 0x57870, symBinAddr: 0x1000589E0, symSize: 0x0 }
  - { offset: 0xCE811, size: 0x8, addend: 0x0, symName: __ZN5boost4json6detail11string_impl17replace_uncheckedEmmmRKNS0_11storage_ptrE, symObjAddr: 0x16AA0, symBinAddr: 0x100017E00, symSize: 0x328 }
  - { offset: 0xCE8E2, size: 0x8, addend: 0x0, symName: __ZZN5boost4json6detail11string_impl17replace_uncheckedEmmmRKNS0_11storage_ptrEE3loc, symObjAddr: 0x4F398, symBinAddr: 0x10006F0F8, symSize: 0x0 }
  - { offset: 0xCE951, size: 0x8, addend: 0x0, symName: __ZZN5boost4json6detail11string_impl17replace_uncheckedEmmmRKNS0_11storage_ptrEE3loc_0, symObjAddr: 0x4F380, symBinAddr: 0x10006F0E0, symSize: 0x0 }
  - { offset: 0xCEC99, size: 0x8, addend: 0x0, symName: __ZN5boost4json6detail11string_impl7replaceEmmPKcmRKNS0_11storage_ptrE, symObjAddr: 0x166E0, symBinAddr: 0x100017A40, symSize: 0x390 }
  - { offset: 0xCED6B, size: 0x8, addend: 0x0, symName: __ZZN5boost4json6detail11string_impl7replaceEmmPKcmRKNS0_11storage_ptrEE3loc, symObjAddr: 0x4F3C8, symBinAddr: 0x10006F128, symSize: 0x0 }
  - { offset: 0xCEE7B, size: 0x8, addend: 0x0, symName: __ZZN5boost4json6detail11string_impl7replaceEmmPKcmRKNS0_11storage_ptrEE3loc_0, symObjAddr: 0x4F3B0, symBinAddr: 0x10006F110, symSize: 0x0 }
  - { offset: 0xCF077, size: 0x8, addend: 0x0, symName: __ZN5boost4json6detail11string_impl16insert_uncheckedEmmRKNS0_11storage_ptrE, symObjAddr: 0x16410, symBinAddr: 0x100017770, symSize: 0x27C }
  - { offset: 0xCF120, size: 0x8, addend: 0x0, symName: __ZZN5boost4json6detail11string_impl16insert_uncheckedEmmRKNS0_11storage_ptrEE3loc, symObjAddr: 0x4F3F8, symBinAddr: 0x10006F158, symSize: 0x0 }
  - { offset: 0xCF18F, size: 0x8, addend: 0x0, symName: __ZZN5boost4json6detail11string_impl16insert_uncheckedEmmRKNS0_11storage_ptrEE3loc_0, symObjAddr: 0x4F3E0, symBinAddr: 0x10006F140, symSize: 0x0 }
  - { offset: 0xCF48B, size: 0x8, addend: 0x0, symName: __ZN5boost4json6detail11string_impl6insertEmPKcmRKNS0_11storage_ptrE, symObjAddr: 0x160A0, symBinAddr: 0x100017400, symSize: 0x344 }
  - { offset: 0xCF532, size: 0x8, addend: 0x0, symName: __ZZN5boost4json6detail11string_impl6insertEmPKcmRKNS0_11storage_ptrEE3loc, symObjAddr: 0x4F428, symBinAddr: 0x10006F188, symSize: 0x0 }
  - { offset: 0xCF624, size: 0x8, addend: 0x0, symName: __ZZN5boost4json6detail11string_impl6insertEmPKcmRKNS0_11storage_ptrEE3loc_0, symObjAddr: 0x4F410, symBinAddr: 0x10006F170, symSize: 0x0 }
  - { offset: 0xCF91D, size: 0x8, addend: 0x0, symName: __ZN5boost4json6detail11string_impl6appendEmRKNS0_11storage_ptrE, symObjAddr: 0x15C60, symBinAddr: 0x100016FC0, symSize: 0x370 }
  - { offset: 0xCF990, size: 0x8, addend: 0x0, symName: __ZZN5boost4json6detail11string_impl6appendEmRKNS0_11storage_ptrEE3loc, symObjAddr: 0x4F440, symBinAddr: 0x10006F1A0, symSize: 0x0 }
  - { offset: 0xCFE4C, size: 0x8, addend: 0x0, symName: __ZZN5boost4json6detail11string_impl6growthEmmE3loc, symObjAddr: 0x4F458, symBinAddr: 0x10006F1B8, symSize: 0x0 }
  - { offset: 0xCFEC3, size: 0x8, addend: 0x0, symName: __ZN5boost4json6detail11string_implC1ENS1_5key_tENS_4core17basic_string_viewIcEES6_RKNS0_11storage_ptrE, symObjAddr: 0xD328, symBinAddr: 0x10000E688, symSize: 0xC8 }
  - { offset: 0xD0012, size: 0x8, addend: 0x0, symName: __ZN5boost4json6detail11string_implC2ENS1_5key_tENS_4core17basic_string_viewIcEES6_RKNS0_11storage_ptrE, symObjAddr: 0xD260, symBinAddr: 0x10000E5C0, symSize: 0xC8 }
  - { offset: 0xD0146, size: 0x8, addend: 0x0, symName: __ZN5boost4json6detail11string_implC1ENS1_5key_tENS_4core17basic_string_viewIcEERKNS0_11storage_ptrE, symObjAddr: 0xD1C0, symBinAddr: 0x10000E520, symSize: 0xA0 }
  - { offset: 0xD023D, size: 0x8, addend: 0x0, symName: __ZN5boost4json6detail11string_implC2ENS1_5key_tENS_4core17basic_string_viewIcEERKNS0_11storage_ptrE, symObjAddr: 0xD120, symBinAddr: 0x10000E480, symSize: 0xA0 }
  - { offset: 0xD033D, size: 0x8, addend: 0x0, symName: __ZN5boost4json6detail11string_implC1EmRKNS0_11storage_ptrE, symObjAddr: 0x126F0, symBinAddr: 0x100013A50, symSize: 0xD0 }
  - { offset: 0xD050D, size: 0x8, addend: 0x0, symName: __ZN5boost4json6detail11string_implC2EmRKNS0_11storage_ptrE, symObjAddr: 0x12620, symBinAddr: 0x100013980, symSize: 0xD0 }
  - { offset: 0xD0686, size: 0x8, addend: 0x0, symName: __ZN5boost4json6detail11string_implC1Ev, symObjAddr: 0xD110, symBinAddr: 0x10000E470, symSize: 0x10 }
  - { offset: 0xD0751, size: 0x8, addend: 0x0, symName: __ZN5boost4json6detail5stackC1ENS0_11storage_ptrEPhm, symObjAddr: 0xD0C8, symBinAddr: 0x10000E428, symSize: 0x18 }
  - { offset: 0xD078A, size: 0x8, addend: 0x0, symName: __ZN5boost4json6detail5stackC1ENS0_11storage_ptrEPhm, symObjAddr: 0xD0C8, symBinAddr: 0x10000E428, symSize: 0x18 }
  - { offset: 0xD07B7, size: 0x8, addend: 0x0, symName: __ZN5boost4json6detail5stackC1ENS0_11storage_ptrEPhm, symObjAddr: 0xD0C8, symBinAddr: 0x10000E428, symSize: 0x18 }
  - { offset: 0xD081D, size: 0x8, addend: 0x0, symName: __ZN5boost4json6detail5stackD1Ev, symObjAddr: 0xC664, symBinAddr: 0x10000D9C4, symSize: 0x8C }
  - { offset: 0xD0BC8, size: 0x8, addend: 0x0, symName: __ZN5boost4json6detail12format_int64EPcx, symObjAddr: 0xC600, symBinAddr: 0x10000D960, symSize: 0x64 }
  - { offset: 0xD0D5B, size: 0x8, addend: 0x0, symName: __ZN5boost4json6detail18throw_system_errorENS0_5errorEPKNS_15source_locationE, symObjAddr: 0x11D24, symBinAddr: 0x100013084, symSize: 0x9C }
  - { offset: 0xD0E67, size: 0x8, addend: 0x0, symName: __ZN5boost4json6detail18throw_system_errorERKNS_6system10error_codeERKNS_15source_locationE, symObjAddr: 0x11AD0, symBinAddr: 0x100012E30, symSize: 0x54 }
  - { offset: 0xD0EED, size: 0x8, addend: 0x0, symName: __ZN5boost4json6detail16default_resource13do_deallocateEPvmm, symObjAddr: 0x8C0, symBinAddr: 0x100001C20, symSize: 0x8 }
  - { offset: 0xD0F39, size: 0x8, addend: 0x0, symName: __ZN5boost4json6detail16default_resource11do_allocateEmm, symObjAddr: 0x820, symBinAddr: 0x100001B80, symSize: 0x8 }
  - { offset: 0xD0FA1, size: 0x8, addend: 0x0, symName: __ZN5boost4json6detail16default_resourceD0Ev, symObjAddr: 0x808, symBinAddr: 0x100001B68, symSize: 0x8 }
  - { offset: 0xD0FCC, size: 0x8, addend: 0x0, symName: __ZN5boost4json6detail16default_resourceD1Ev, symObjAddr: 0x500, symBinAddr: 0x100001860, symSize: 0x4 }
  - { offset: 0xD1015, size: 0x8, addend: 0x0, symName: __ZN5boost4json6detail15shared_resourceD0Ev, symObjAddr: 0xC5C8, symBinAddr: 0x10000D928, symSize: 0x8 }
  - { offset: 0xD1040, size: 0x8, addend: 0x0, symName: __ZN5boost4json6detail15shared_resourceD1Ev, symObjAddr: 0xC5C4, symBinAddr: 0x10000D924, symSize: 0x4 }
  - { offset: 0xD107F, size: 0x8, addend: 0x0, symName: __ZN5boost4json6detail15shared_resourceC1Ev, symObjAddr: 0xC5A0, symBinAddr: 0x10000D900, symSize: 0x20 }
  - { offset: 0xD10F0, size: 0x8, addend: 0x0, symName: __ZN5boost4json9value_ref11write_arrayEPNS0_5valueESt16initializer_listIS1_ERKNS0_11storage_ptrE, symObjAddr: 0x20840, symBinAddr: 0x100021BA0, symSize: 0x110 }
  - { offset: 0xD121E, size: 0x8, addend: 0x0, symName: __ZN5boost4json9value_ref11write_arrayEPNS0_5valueESt16initializer_listIS1_ERKNS0_11storage_ptrE, symObjAddr: 0x20840, symBinAddr: 0x100021BA0, symSize: 0x110 }
  - { offset: 0xD1432, size: 0x8, addend: 0x0, symName: __ZN5boost4json9value_ref10make_arrayESt16initializer_listIS1_ENS0_11storage_ptrE, symObjAddr: 0x20640, symBinAddr: 0x1000219A0, symSize: 0x200 }
  - { offset: 0xD19CB, size: 0x8, addend: 0x0, symName: __ZN5boost4json9value_ref11make_objectESt16initializer_listIS1_ENS0_11storage_ptrE, symObjAddr: 0x1FF40, symBinAddr: 0x1000212A0, symSize: 0x248 }
  - { offset: 0xD1FC2, size: 0x8, addend: 0x0, symName: __ZN5boost4json9value_ref10make_valueESt16initializer_listIS1_ENS0_11storage_ptrE, symObjAddr: 0x20188, symBinAddr: 0x1000214E8, symSize: 0x1F8 }
  - { offset: 0xD1FFC, size: 0x8, addend: 0x0, symName: __ZN5boost4json9value_ref10make_valueESt16initializer_listIS1_ENS0_11storage_ptrE, symObjAddr: 0x20188, symBinAddr: 0x1000214E8, symSize: 0x1F8 }
  - { offset: 0xD2049, size: 0x8, addend: 0x0, symName: __ZN5boost4json9value_ref10make_valueESt16initializer_listIS1_ENS0_11storage_ptrE, symObjAddr: 0x20188, symBinAddr: 0x1000214E8, symSize: 0x1F8 }
  - { offset: 0xD25C7, size: 0x8, addend: 0x0, symName: __ZNK5boost4json9value_ref10make_valueENS0_11storage_ptrE, symObjAddr: 0x20400, symBinAddr: 0x100021760, symSize: 0x1C0 }
  - { offset: 0xD2BD9, size: 0x8, addend: 0x0, symName: __ZN5boost4json9value_ref14from_init_listEPKvNS0_11storage_ptrE, symObjAddr: 0x20380, symBinAddr: 0x1000216E0, symSize: 0x80 }
  - { offset: 0xD2D7E, size: 0x8, addend: 0x0, symName: __ZNK5boost4json9value_refcvNS0_5valueEEv, symObjAddr: 0x205C0, symBinAddr: 0x100021920, symSize: 0x80 }
  - { offset: 0xD2F64, size: 0x8, addend: 0x0, symName: __ZN5boost4json11value_stack11push_stringENS_4core17basic_string_viewIcEE, symObjAddr: 0x148A8, symBinAddr: 0x100015C08, symSize: 0x358 }
  - { offset: 0xD377C, size: 0x8, addend: 0x0, symName: __ZN5boost4json11value_stack8push_keyENS_4core17basic_string_viewIcEE, symObjAddr: 0xC0C4, symBinAddr: 0x10000D424, symSize: 0x27C }
  - { offset: 0xD3E5D, size: 0x8, addend: 0x0, symName: __ZN5boost4json11value_stack11push_objectEm, symObjAddr: 0xBF2C, symBinAddr: 0x10000D28C, symSize: 0x194 }
  - { offset: 0xD407D, size: 0x8, addend: 0x0, symName: __ZN5boost4json11value_stack10push_arrayEm, symObjAddr: 0x12264, symBinAddr: 0x1000135C4, symSize: 0x1DC }
  - { offset: 0xD44D9, size: 0x8, addend: 0x0, symName: __ZN5boost4json11value_stackC1ENS0_11storage_ptrEPhm, symObjAddr: 0xBCF0, symBinAddr: 0x10000D050, symSize: 0x70 }
  - { offset: 0xD4514, size: 0x8, addend: 0x0, symName: __ZN5boost4json11value_stackC1ENS0_11storage_ptrEPhm, symObjAddr: 0xBCF0, symBinAddr: 0x10000D050, symSize: 0x70 }
  - { offset: 0xD4536, size: 0x8, addend: 0x0, symName: __ZN5boost4json11value_stackC1ENS0_11storage_ptrEPhm, symObjAddr: 0xBCF0, symBinAddr: 0x10000D050, symSize: 0x70 }
  - { offset: 0xD464D, size: 0x8, addend: 0x0, symName: __ZN5boost4json11value_stackD1Ev, symObjAddr: 0xBB6C, symBinAddr: 0x10000CECC, symSize: 0x114 }
  - { offset: 0xD495F, size: 0x8, addend: 0x0, symName: __ZN5boost4json11value_stack5stack6appendENS_4core17basic_string_viewIcEE, symObjAddr: 0xB880, symBinAddr: 0x10000CBE0, symSize: 0x1E0 }
  - { offset: 0xD4BCA, size: 0x8, addend: 0x0, symName: __ZN5boost4json11value_stack5stack8grow_oneEv, symObjAddr: 0xB448, symBinAddr: 0x10000C7A8, symSize: 0x138 }
  - { offset: 0xD4E30, size: 0x8, addend: 0x0, symName: __ZNKSt4hashIN5boost4json5valueEEclERKS2_, symObjAddr: 0x2CA40, symBinAddr: 0x10002DDA0, symSize: 0x8 }
  - { offset: 0xD4F3A, size: 0x8, addend: 0x0, symName: __ZN5boost4json14key_value_pairC1ERKS1_NS0_11storage_ptrE, symObjAddr: 0x18044, symBinAddr: 0x1000193A4, symSize: 0xEC }
  - { offset: 0xD51EC, size: 0x8, addend: 0x0, symName: __ZNK5boost4json5value5equalERKS1_, symObjAddr: 0x18320, symBinAddr: 0x100019680, symSize: 0x200 }
  - { offset: 0xD5224, size: 0x8, addend: 0x0, symName: __ZNK5boost4json5value5equalERKS1_, symObjAddr: 0x18320, symBinAddr: 0x100019680, symSize: 0x200 }
  - { offset: 0xD56AE, size: 0x8, addend: 0x0, symName: __ZN5boost4json5value7destroyEv, symObjAddr: 0xB270, symBinAddr: 0x10000C5D0, symSize: 0x114 }
  - { offset: 0xD5B48, size: 0x8, addend: 0x0, symName: __ZN5boost4jsonrsERSiRKNS0_13parse_optionsE, symObjAddr: 0xB1A0, symBinAddr: 0x10000C500, symSize: 0xD0 }
  - { offset: 0xD5C24, size: 0x8, addend: 0x0, symName: __ZN5boost4jsonrsERSiRNS0_5valueE, symObjAddr: 0x460EC, symBinAddr: 0x10004744C, symSize: 0x558 }
  - { offset: 0xD6815, size: 0x8, addend: 0x0, symName: __ZN5boost4json5value4swapERS1_, symObjAddr: 0x18B60, symBinAddr: 0x100019EC0, symSize: 0x1A0 }
  - { offset: 0xD6ECB, size: 0x8, addend: 0x0, symName: __ZN5boost4json5value14emplace_objectEv, symObjAddr: 0xB404, symBinAddr: 0x10000C764, symSize: 0x44 }
  - { offset: 0xD6F90, size: 0x8, addend: 0x0, symName: __ZN5boost4json5value13emplace_arrayEv, symObjAddr: 0xB3C0, symBinAddr: 0x10000C720, symSize: 0x44 }
  - { offset: 0xD7055, size: 0x8, addend: 0x0, symName: __ZN5boost4json5value14emplace_stringEv, symObjAddr: 0xB384, symBinAddr: 0x10000C6E4, symSize: 0x3C }
  - { offset: 0xD713A, size: 0x8, addend: 0x0, symName: __ZN5boost4json5valueaSEONS0_6objectE, symObjAddr: 0x192EC, symBinAddr: 0x10001A64C, symSize: 0xC4 }
  - { offset: 0xD73C9, size: 0x8, addend: 0x0, symName: __ZN5boost4json5valueaSERKNS0_6objectE, symObjAddr: 0x19860, symBinAddr: 0x10001ABC0, symSize: 0xC4 }
  - { offset: 0xD7658, size: 0x8, addend: 0x0, symName: __ZN5boost4json5valueaSEONS0_5arrayE, symObjAddr: 0x19228, symBinAddr: 0x10001A588, symSize: 0xC4 }
  - { offset: 0xD78E7, size: 0x8, addend: 0x0, symName: __ZN5boost4json5valueaSERKNS0_5arrayE, symObjAddr: 0x19164, symBinAddr: 0x10001A4C4, symSize: 0xC4 }
  - { offset: 0xD7B76, size: 0x8, addend: 0x0, symName: __ZN5boost4json5valueaSEONS0_6stringE, symObjAddr: 0x193B0, symBinAddr: 0x10001A710, symSize: 0x130 }
  - { offset: 0xD7F23, size: 0x8, addend: 0x0, symName: __ZN5boost4json5valueaSERKNS0_6stringE, symObjAddr: 0x18F80, symBinAddr: 0x10001A2E0, symSize: 0x1E4 }
  - { offset: 0xD85AA, size: 0x8, addend: 0x0, symName: __ZN5boost4json5valueaSEPKc, symObjAddr: 0x194E0, symBinAddr: 0x10001A840, symSize: 0x1C4 }
  - { offset: 0xD8BF9, size: 0x8, addend: 0x0, symName: __ZN5boost4json5valueaSENS_4core17basic_string_viewIcEE, symObjAddr: 0x18DC8, symBinAddr: 0x10001A128, symSize: 0x1B8 }
  - { offset: 0xD91FF, size: 0x8, addend: 0x0, symName: __ZN5boost4json5valueaSESt16initializer_listINS0_9value_refEE, symObjAddr: 0x21B00, symBinAddr: 0x100022E60, symSize: 0xC8 }
  - { offset: 0xD9403, size: 0x8, addend: 0x0, symName: __ZN5boost4json5valueaSEOS1_, symObjAddr: 0x196A4, symBinAddr: 0x10001AA04, symSize: 0xC8 }
  - { offset: 0xD9672, size: 0x8, addend: 0x0, symName: __ZN5boost4json5valueC1ESt16initializer_listINS0_9value_refEENS0_11storage_ptrE, symObjAddr: 0x21960, symBinAddr: 0x100022CC0, symSize: 0x1A0 }
  - { offset: 0xD9B92, size: 0x8, addend: 0x0, symName: __ZN5boost4json5valueC1EOS1_NS0_11storage_ptrE, symObjAddr: 0x189C0, symBinAddr: 0x100019D20, symSize: 0x1A0 }
  - { offset: 0xDA378, size: 0x8, addend: 0x0, symName: __ZN5boost4json5valueC1EOS1_, symObjAddr: 0xB160, symBinAddr: 0x10000C4C0, symSize: 0x40 }
  - { offset: 0xDA3A2, size: 0x8, addend: 0x0, symName: __ZN5boost4json5valueC1EOS1_, symObjAddr: 0xB160, symBinAddr: 0x10000C4C0, symSize: 0x40 }
  - { offset: 0xDA56D, size: 0x8, addend: 0x0, symName: __ZN5boost4json5valueC1ERKS1_NS0_11storage_ptrE, symObjAddr: 0x174EC, symBinAddr: 0x10001884C, symSize: 0x1A0 }
  - { offset: 0xDAD50, size: 0x8, addend: 0x0, symName: __ZN5boost4json5valueD1Ev, symObjAddr: 0x8880, symBinAddr: 0x100009BE0, symSize: 0x120 }
  - { offset: 0xDB047, size: 0x8, addend: 0x0, symName: __ZN5boost4json5valueD2Ev, symObjAddr: 0xB0A0, symBinAddr: 0x10000C400, symSize: 0x80 }
  - { offset: 0xDB156, size: 0x8, addend: 0x0, symName: __ZNKSt4hashIN5boost4json6stringEEclERKS2_, symObjAddr: 0xAF00, symBinAddr: 0x10000C260, symSize: 0x1A0 }
  - { offset: 0xDB18E, size: 0x8, addend: 0x0, symName: __ZNKSt4hashIN5boost4json6stringEEclERKS2_, symObjAddr: 0xAF00, symBinAddr: 0x10000C260, symSize: 0x1A0 }
  - { offset: 0xDB1B4, size: 0x8, addend: 0x0, symName: __ZNKSt4hashIN5boost4json6stringEEclERKS2_, symObjAddr: 0xAF00, symBinAddr: 0x10000C260, symSize: 0x1A0 }
  - { offset: 0xDB1D4, size: 0x8, addend: 0x0, symName: __ZNKSt4hashIN5boost4json6stringEEclERKS2_, symObjAddr: 0xAF00, symBinAddr: 0x10000C260, symSize: 0x1A0 }
  - { offset: 0xDB1F8, size: 0x8, addend: 0x0, symName: __ZNKSt4hashIN5boost4json6stringEEclERKS2_, symObjAddr: 0xAF00, symBinAddr: 0x10000C260, symSize: 0x1A0 }
  - { offset: 0xDB446, size: 0x8, addend: 0x0, symName: __ZN5boost4json6string12reserve_implEm, symObjAddr: 0x14460, symBinAddr: 0x1000157C0, symSize: 0x2A0 }
  - { offset: 0xDB79B, size: 0x8, addend: 0x0, symName: __ZN5boost4json6string4swapERS1_, symObjAddr: 0x12C20, symBinAddr: 0x100013F80, symSize: 0x224 }
  - { offset: 0xDBE82, size: 0x8, addend: 0x0, symName: __ZN5boost4json6string6resizeEmc, symObjAddr: 0x14700, symBinAddr: 0x100015A60, symSize: 0x1A8 }
  - { offset: 0xDC174, size: 0x8, addend: 0x0, symName: __ZN5boost4json6string5eraseEPKc, symObjAddr: 0x1B1CC, symBinAddr: 0x10001C52C, symSize: 0x1B4 }
  - { offset: 0xDC3F3, size: 0x8, addend: 0x0, symName: __ZZN5boost4json6string5eraseEmmE3loc, symObjAddr: 0x4F470, symBinAddr: 0x10006F1D0, symSize: 0x0 }
  - { offset: 0xDC40B, size: 0x8, addend: 0x0, symName: __ZN5boost4json6string7replaceEmmmc, symObjAddr: 0x16DC8, symBinAddr: 0x100018128, symSize: 0x58 }
  - { offset: 0xDC4BB, size: 0x8, addend: 0x0, symName: __ZN5boost4json6string7replaceEmmNS_4core17basic_string_viewIcEE, symObjAddr: 0x16A70, symBinAddr: 0x100017DD0, symSize: 0x30 }
  - { offset: 0xDC520, size: 0x8, addend: 0x0, symName: __ZN5boost4json6string6insertEmmc, symObjAddr: 0x1668C, symBinAddr: 0x1000179EC, symSize: 0x54 }
  - { offset: 0xDC5BE, size: 0x8, addend: 0x0, symName: __ZN5boost4json6string6insertEmNS_4core17basic_string_viewIcEE, symObjAddr: 0x163E4, symBinAddr: 0x100017744, symSize: 0x2C }
  - { offset: 0xDC610, size: 0x8, addend: 0x0, symName: __ZN5boost4json6string6appendENS_4core17basic_string_viewIcEE, symObjAddr: 0x1604C, symBinAddr: 0x1000173AC, symSize: 0x54 }
  - { offset: 0xDC687, size: 0x8, addend: 0x0, symName: __ZN5boost4json6string6appendEmc, symObjAddr: 0x16000, symBinAddr: 0x100017360, symSize: 0x4C }
  - { offset: 0xDC70F, size: 0x8, addend: 0x0, symName: __ZN5boost4json6string8pop_backEv, symObjAddr: 0xAE88, symBinAddr: 0x10000C1E8, symSize: 0x78 }
  - { offset: 0xDC735, size: 0x8, addend: 0x0, symName: __ZN5boost4json6string8pop_backEv, symObjAddr: 0xAE88, symBinAddr: 0x10000C1E8, symSize: 0x78 }
  - { offset: 0xDC754, size: 0x8, addend: 0x0, symName: __ZN5boost4json6string8pop_backEv, symObjAddr: 0xAE88, symBinAddr: 0x10000C1E8, symSize: 0x78 }
  - { offset: 0xDC7ED, size: 0x8, addend: 0x0, symName: __ZN5boost4json6string9push_backEc, symObjAddr: 0x15FD0, symBinAddr: 0x100017330, symSize: 0x30 }
  - { offset: 0xDC82C, size: 0x8, addend: 0x0, symName: __ZN5boost4json6string5clearEv, symObjAddr: 0xAE40, symBinAddr: 0x10000C1A0, symSize: 0x48 }
  - { offset: 0xDC852, size: 0x8, addend: 0x0, symName: __ZN5boost4json6string5clearEv, symObjAddr: 0xAE40, symBinAddr: 0x10000C1A0, symSize: 0x48 }
  - { offset: 0xDC8D4, size: 0x8, addend: 0x0, symName: __ZN5boost4json6string13shrink_to_fitEv, symObjAddr: 0x158E0, symBinAddr: 0x100016C40, symSize: 0x1C0 }
  - { offset: 0xDCCC6, size: 0x8, addend: 0x0, symName: __ZN5boost4json6stringaSENS_4core17basic_string_viewIcEE, symObjAddr: 0x132B0, symBinAddr: 0x100014610, symSize: 0x250 }
  - { offset: 0xDD0AC, size: 0x8, addend: 0x0, symName: __ZN5boost4json6stringaSEOS1_, symObjAddr: 0x129E0, symBinAddr: 0x100013D40, symSize: 0x120 }
  - { offset: 0xDD337, size: 0x8, addend: 0x0, symName: __ZN5boost4json6stringaSERKS1_, symObjAddr: 0x14C00, symBinAddr: 0x100015F60, symSize: 0x280 }
  - { offset: 0xDD7AC, size: 0x8, addend: 0x0, symName: __ZN5boost4json6stringC1ENS_4core17basic_string_viewIcEENS0_11storage_ptrE, symObjAddr: 0x141CC, symBinAddr: 0x10001552C, symSize: 0x140 }
  - { offset: 0xDDC11, size: 0x8, addend: 0x0, symName: __ZN5boost4json6stringC1EOS1_NS0_11storage_ptrE, symObjAddr: 0x151E0, symBinAddr: 0x100016540, symSize: 0xE0 }
  - { offset: 0xDDE4E, size: 0x8, addend: 0x0, symName: __ZN5boost4json6stringC1ERKS1_NS0_11storage_ptrE, symObjAddr: 0x15440, symBinAddr: 0x1000167A0, symSize: 0x180 }
  - { offset: 0xDE323, size: 0x8, addend: 0x0, symName: __ZN5boost4json6stringC1ERKS1_, symObjAddr: 0x15750, symBinAddr: 0x100016AB0, symSize: 0x190 }
  - { offset: 0xDE86C, size: 0x8, addend: 0x0, symName: __ZN5boost4json6stringC1EPKcmNS0_11storage_ptrE, symObjAddr: 0x1408C, symBinAddr: 0x1000153EC, symSize: 0x140 }
  - { offset: 0xDECB4, size: 0x8, addend: 0x0, symName: __ZN5boost4json6stringC1EPKcNS0_11storage_ptrE, symObjAddr: 0x1430C, symBinAddr: 0x10001566C, symSize: 0x154 }
  - { offset: 0xDF16B, size: 0x8, addend: 0x0, symName: __ZN5boost4json6stringC1EmcNS0_11storage_ptrE, symObjAddr: 0x13DC0, symBinAddr: 0x100015120, symSize: 0x180 }
  - { offset: 0xDF58B, size: 0x8, addend: 0x0, symName: __ZN5boost4json13stream_parser6finishERSt10error_code, symObjAddr: 0x431E0, symBinAddr: 0x100044540, symSize: 0x80 }
  - { offset: 0xDF6B3, size: 0x8, addend: 0x0, symName: __ZN5boost4json13stream_parser5writeEPKcm, symObjAddr: 0x430E0, symBinAddr: 0x100044440, symSize: 0x70 }
  - { offset: 0xDF814, size: 0x8, addend: 0x0, symName: __ZN5boost4json13stream_parser5writeEPKcmRSt10error_code, symObjAddr: 0x43050, symBinAddr: 0x1000443B0, symSize: 0x90 }
  - { offset: 0xDF945, size: 0x8, addend: 0x0, symName: __ZZN5boost4json13stream_parser5writeEPKcmRNS_6system10error_codeEE3loc, symObjAddr: 0x4F488, symBinAddr: 0x10006F1E8, symSize: 0x0 }
  - { offset: 0xDF95C, size: 0x8, addend: 0x0, symName: __ZN5boost4json13stream_parser10write_someEPKcm, symObjAddr: 0x42F40, symBinAddr: 0x1000442A0, symSize: 0x80 }
  - { offset: 0xDFAF3, size: 0x8, addend: 0x0, symName: __ZN5boost4json13stream_parser10write_someEPKcmRSt10error_code, symObjAddr: 0x42EA0, symBinAddr: 0x100044200, symSize: 0xA0 }
  - { offset: 0xDFC4F, size: 0x8, addend: 0x0, symName: __ZN5boost4json15static_resource11do_allocateEmm, symObjAddr: 0x20E8, symBinAddr: 0x100003448, symSize: 0xDC }
  - { offset: 0xDFCA8, size: 0x8, addend: 0x0, symName: __ZN5boost4json15static_resource11do_allocateEmm, symObjAddr: 0x20E8, symBinAddr: 0x100003448, symSize: 0xDC }
  - { offset: 0xDFCEB, size: 0x8, addend: 0x0, symName: __ZN5boost4json15static_resource11do_allocateEmm, symObjAddr: 0x20E8, symBinAddr: 0x100003448, symSize: 0xDC }
  - { offset: 0xDFE03, size: 0x8, addend: 0x0, symName: __ZN5boost4json15static_resource7releaseEv, symObjAddr: 0xAAA0, symBinAddr: 0x10000BE00, symSize: 0x20 }
  - { offset: 0xDFE60, size: 0x8, addend: 0x0, symName: __ZN5boost4json15static_resourceC1EPhm, symObjAddr: 0xAA80, symBinAddr: 0x10000BDE0, symSize: 0x20 }
  - { offset: 0xDFED2, size: 0x8, addend: 0x0, symName: __ZZN5boost4json10serializer4readEPcmE4null, symObjAddr: 0x50AD40, symBinAddr: 0x100070E10, symSize: 0x0 }
  - { offset: 0xDFFDA, size: 0x8, addend: 0x0, symName: __ZN5boost4json10serializerC1ERKNS0_17serialize_optionsE, symObjAddr: 0xA7CC, symBinAddr: 0x10000BB2C, symSize: 0x40 }
  - { offset: 0xE01A1, size: 0x8, addend: 0x0, symName: __ZN5boost4json10serializerC1ENS0_11storage_ptrEPhmRKNS0_17serialize_optionsE, symObjAddr: 0xA748, symBinAddr: 0x10000BAA8, symSize: 0x44 }
  - { offset: 0xE02E7, size: 0x8, addend: 0x0, symName: __ZN5boost4jsonlsERSoRKNS0_17serialize_optionsE, symObjAddr: 0xA690, symBinAddr: 0x10000B9F0, symSize: 0x74 }
  - { offset: 0xE037F, size: 0x8, addend: 0x0, symName: __ZN5boost4jsonlsERSoRKNS0_6stringE, symObjAddr: 0xCD48, symBinAddr: 0x10000E0A8, symSize: 0x238 }
  - { offset: 0xE0823, size: 0x8, addend: 0x0, symName: __ZN5boost4jsonlsERSoRKNS0_6objectE, symObjAddr: 0xCB68, symBinAddr: 0x10000DEC8, symSize: 0x1E0 }
  - { offset: 0xE0C0E, size: 0x8, addend: 0x0, symName: __ZN5boost4jsonlsERSoRKNS0_5arrayE, symObjAddr: 0xC988, symBinAddr: 0x10000DCE8, symSize: 0x1E0 }
  - { offset: 0xE103F, size: 0x8, addend: 0x0, symName: __ZN5boost4jsonlsERSoRKNS0_5valueE, symObjAddr: 0xC6F0, symBinAddr: 0x10000DA50, symSize: 0x298 }
  - { offset: 0xE15B7, size: 0x8, addend: 0x0, symName: __ZN5boost4json9serializeB5cxx11ENS_4core17basic_string_viewIcEERKNS0_17serialize_optionsE, symObjAddr: 0x104F0, symBinAddr: 0x100011850, symSize: 0xB0 }
  - { offset: 0xE1623, size: 0x8, addend: 0x0, symName: __ZN5boost4json9serializeB5cxx11ENS_4core17basic_string_viewIcEERKNS0_17serialize_optionsE, symObjAddr: 0x104F0, symBinAddr: 0x100011850, symSize: 0xB0 }
  - { offset: 0xE1666, size: 0x8, addend: 0x0, symName: __ZN5boost4json9serializeB5cxx11ENS_4core17basic_string_viewIcEERKNS0_17serialize_optionsE, symObjAddr: 0x104F0, symBinAddr: 0x100011850, symSize: 0xB0 }
  - { offset: 0xE169F, size: 0x8, addend: 0x0, symName: __ZN5boost4json9serializeB5cxx11ENS_4core17basic_string_viewIcEERKNS0_17serialize_optionsE, symObjAddr: 0x104F0, symBinAddr: 0x100011850, symSize: 0xB0 }
  - { offset: 0xE18A9, size: 0x8, addend: 0x0, symName: __ZN5boost4json9serializeB5cxx11ERKNS0_6stringERKNS0_17serialize_optionsE, symObjAddr: 0x105A0, symBinAddr: 0x100011900, symSize: 0x80 }
  - { offset: 0xE1988, size: 0x8, addend: 0x0, symName: __ZN5boost4json9serializeB5cxx11ERKNS0_6objectERKNS0_17serialize_optionsE, symObjAddr: 0x10620, symBinAddr: 0x100011980, symSize: 0xA8 }
  - { offset: 0xE1C4D, size: 0x8, addend: 0x0, symName: __ZN5boost4json9serializeB5cxx11ERKNS0_5arrayERKNS0_17serialize_optionsE, symObjAddr: 0x106C8, symBinAddr: 0x100011A28, symSize: 0xA8 }
  - { offset: 0xE1F12, size: 0x8, addend: 0x0, symName: __ZN5boost4json9serializeB5cxx11ERKNS0_5valueERKNS0_17serialize_optionsE, symObjAddr: 0x10770, symBinAddr: 0x100011AD0, symSize: 0xB0 }
  - { offset: 0xE1F7E, size: 0x8, addend: 0x0, symName: __ZN5boost4json9serializeB5cxx11ERKNS0_5valueERKNS0_17serialize_optionsE, symObjAddr: 0x10770, symBinAddr: 0x100011AD0, symSize: 0xB0 }
  - { offset: 0xE1FC1, size: 0x8, addend: 0x0, symName: __ZN5boost4json9serializeB5cxx11ERKNS0_5valueERKNS0_17serialize_optionsE, symObjAddr: 0x10770, symBinAddr: 0x100011AD0, symSize: 0xB0 }
  - { offset: 0xE1FFA, size: 0x8, addend: 0x0, symName: __ZN5boost4json9serializeB5cxx11ERKNS0_5valueERKNS0_17serialize_optionsE, symObjAddr: 0x10770, symBinAddr: 0x100011AD0, symSize: 0xB0 }
  - { offset: 0xE22E9, size: 0x8, addend: 0x0, symName: __ZN5boost4json5value14set_at_pointerENS_4core17basic_string_viewIcEENS0_9value_refERKNS0_19set_pointer_optionsE, symObjAddr: 0x216C8, symBinAddr: 0x100022A28, symSize: 0x13C }
  - { offset: 0xE262C, size: 0x8, addend: 0x0, symName: __ZN5boost4json5value14set_at_pointerENS_4core17basic_string_viewIcEENS0_9value_refERSt10error_codeRKNS0_19set_pointer_optionsE, symObjAddr: 0x21804, symBinAddr: 0x100022B64, symSize: 0x15C }
  - { offset: 0xE2B99, size: 0x8, addend: 0x0, symName: __ZN5boost4json5value12find_pointerENS_4core17basic_string_viewIcEERSt10error_code, symObjAddr: 0x10E50, symBinAddr: 0x1000121B0, symSize: 0x90 }
  - { offset: 0xE2D36, size: 0x8, addend: 0x0, symName: __ZN5boost4json5value12find_pointerENS_4core17basic_string_viewIcEERNS_6system10error_codeE, symObjAddr: 0x10E40, symBinAddr: 0x1000121A0, symSize: 0x8 }
  - { offset: 0xE2D92, size: 0x8, addend: 0x0, symName: __ZN5boost4json5value12find_pointerENS_4core17basic_string_viewIcEERNS_6system10error_codeE, symObjAddr: 0x10E40, symBinAddr: 0x1000121A0, symSize: 0x8 }
  - { offset: 0xE2F43, size: 0x8, addend: 0x0, symName: __ZNKR5boost4json5value10at_pointerENS_4core17basic_string_viewIcEE, symObjAddr: 0x11CC4, symBinAddr: 0x100013024, symSize: 0x60 }
  - { offset: 0xE30B6, size: 0x8, addend: 0x0, symName: __ZN5boost4json6detail12next_segmentERNS_4core17basic_string_viewIcEERNS_6system10error_codeE, symObjAddr: 0xA4C0, symBinAddr: 0x10000B820, symSize: 0x1D0 }
  - { offset: 0xE313E, size: 0x8, addend: 0x0, symName: __ZZN5boost4json6detail12next_segmentERNS_4core17basic_string_viewIcEERNS_6system10error_codeEE3loc, symObjAddr: 0x4F4D0, symBinAddr: 0x10006F230, symSize: 0x0 }
  - { offset: 0xE3269, size: 0x8, addend: 0x0, symName: __ZZN5boost4json6detail12next_segmentERNS_4core17basic_string_viewIcEERNS_6system10error_codeEE3loc_0, symObjAddr: 0x4F4B8, symBinAddr: 0x10006F218, symSize: 0x0 }
  - { offset: 0xE331B, size: 0x8, addend: 0x0, symName: __ZZN5boost4json6detail12next_segmentERNS_4core17basic_string_viewIcEERNS_6system10error_codeEE3loc_1, symObjAddr: 0x4F4A0, symBinAddr: 0x10006F200, symSize: 0x0 }
  - { offset: 0xE3516, size: 0x8, addend: 0x0, symName: __ZN5boost4json6detail18parse_number_tokenENS_4core17basic_string_viewIcEERNS_6system10error_codeE, symObjAddr: 0xA324, symBinAddr: 0x10000B684, symSize: 0x19C }
  - { offset: 0xE359C, size: 0x8, addend: 0x0, symName: __ZZN5boost4json6detail18parse_number_tokenENS_4core17basic_string_viewIcEERNS_6system10error_codeEE3loc, symObjAddr: 0x4F530, symBinAddr: 0x10006F290, symSize: 0x0 }
  - { offset: 0xE36C0, size: 0x8, addend: 0x0, symName: __ZZN5boost4json6detail18parse_number_tokenENS_4core17basic_string_viewIcEERNS_6system10error_codeEE3loc_0, symObjAddr: 0x4F518, symBinAddr: 0x10006F278, symSize: 0x0 }
  - { offset: 0xE380D, size: 0x8, addend: 0x0, symName: __ZZN5boost4json6detail18parse_number_tokenENS_4core17basic_string_viewIcEERNS_6system10error_codeEE3loc_1, symObjAddr: 0x4F500, symBinAddr: 0x10006F260, symSize: 0x0 }
  - { offset: 0xE392D, size: 0x8, addend: 0x0, symName: __ZZN5boost4json6detail18parse_number_tokenENS_4core17basic_string_viewIcEERNS_6system10error_codeEE3loc_2, symObjAddr: 0x4F4E8, symBinAddr: 0x10006F248, symSize: 0x0 }
  - { offset: 0xE3CCD, size: 0x8, addend: 0x0, symName: __ZZN5boost4json6parser7releaseEvE3loc, symObjAddr: 0x4F548, symBinAddr: 0x10006F2A8, symSize: 0x0 }
  - { offset: 0xE3CE4, size: 0x8, addend: 0x0, symName: __ZN5boost4json6parser5writeEPKcm, symObjAddr: 0x45E70, symBinAddr: 0x1000471D0, symSize: 0xF0 }
  - { offset: 0xE4034, size: 0x8, addend: 0x0, symName: __ZN5boost4json6parser5writeEPKcmRSt10error_code, symObjAddr: 0x45D4C, symBinAddr: 0x1000470AC, symSize: 0x124 }
  - { offset: 0xE43A5, size: 0x8, addend: 0x0, symName: __ZZN5boost4json6parser5writeEPKcmRNS_6system10error_codeEE3loc, symObjAddr: 0x4F560, symBinAddr: 0x10006F2C0, symSize: 0x0 }
  - { offset: 0xE43BC, size: 0x8, addend: 0x0, symName: __ZN5boost4json6parser10write_someEPKcm, symObjAddr: 0x45CC0, symBinAddr: 0x100047020, symSize: 0x8C }
  - { offset: 0xE4560, size: 0x8, addend: 0x0, symName: __ZN5boost4json6parser10write_someEPKcmRSt10error_code, symObjAddr: 0x45BE8, symBinAddr: 0x100046F48, symSize: 0xD8 }
  - { offset: 0xE477A, size: 0x8, addend: 0x0, symName: __ZN5boost4json6parserC1ENS0_11storage_ptrERKNS0_13parse_optionsE, symObjAddr: 0x9FE0, symBinAddr: 0x10000B340, symSize: 0x88 }
  - { offset: 0xE4AE2, size: 0x8, addend: 0x0, symName: __ZN5boost4json6parserC1ENS0_11storage_ptrERKNS0_13parse_optionsEPhm, symObjAddr: 0x9F24, symBinAddr: 0x10000B284, symSize: 0xBC }
  - { offset: 0xE4E04, size: 0x8, addend: 0x0, symName: __ZN5boost4json5parseERSiNS0_11storage_ptrERKNS0_13parse_optionsE, symObjAddr: 0x46AA0, symBinAddr: 0x100047E00, symSize: 0xFC }
  - { offset: 0xE50B0, size: 0x8, addend: 0x0, symName: __ZN5boost4json5parseERSiRSt10error_codeNS0_11storage_ptrERKNS0_13parse_optionsE, symObjAddr: 0x46990, symBinAddr: 0x100047CF0, symSize: 0x110 }
  - { offset: 0xE52EF, size: 0x8, addend: 0x0, symName: __ZN5boost4json5parseERSiRNS_6system10error_codeENS0_11storage_ptrERKNS0_13parse_optionsE, symObjAddr: 0x46644, symBinAddr: 0x1000479A4, symSize: 0x34C }
  - { offset: 0xE53A4, size: 0x8, addend: 0x0, symName: __ZZN5boost4json5parseERSiRNS_6system10error_codeENS0_11storage_ptrERKNS0_13parse_optionsEE3loc, symObjAddr: 0x4F578, symBinAddr: 0x10006F2D8, symSize: 0x0 }
  - { offset: 0xE6048, size: 0x8, addend: 0x0, symName: __ZN5boost4json5parseENS_4core17basic_string_viewIcEENS0_11storage_ptrERKNS0_13parse_optionsE, symObjAddr: 0x43760, symBinAddr: 0x100044AC0, symSize: 0x100 }
  - { offset: 0xE62F4, size: 0x8, addend: 0x0, symName: __ZN5boost4json5parseENS_4core17basic_string_viewIcEERSt10error_codeNS0_11storage_ptrERKNS0_13parse_optionsE, symObjAddr: 0x43650, symBinAddr: 0x1000449B0, symSize: 0x110 }
  - { offset: 0xE6533, size: 0x8, addend: 0x0, symName: __ZN5boost4json5parseENS_4core17basic_string_viewIcEERNS_6system10error_codeENS0_11storage_ptrERKNS0_13parse_optionsE, symObjAddr: 0x4330C, symBinAddr: 0x10004466C, symSize: 0x344 }
  - { offset: 0xE72D8, size: 0x8, addend: 0x0, symName: __ZNKSt4hashIN5boost4json6objectEEclERKS2_, symObjAddr: 0x2CA30, symBinAddr: 0x10002DD90, symSize: 0x10 }
  - { offset: 0xE7310, size: 0x8, addend: 0x0, symName: __ZNKSt4hashIN5boost4json6objectEEclERKS2_, symObjAddr: 0x2CA30, symBinAddr: 0x10002DD90, symSize: 0x10 }
  - { offset: 0xE73D2, size: 0x8, addend: 0x0, symName: __ZN5boost4json6object7destroyEv, symObjAddr: 0x8640, symBinAddr: 0x1000099A0, symSize: 0x18C }
  - { offset: 0xE77C4, size: 0x8, addend: 0x0, symName: __ZZNK5boost4json6object6growthEmE3loc, symObjAddr: 0x4F590, symBinAddr: 0x10006F2F0, symSize: 0x0 }
  - { offset: 0xE77DC, size: 0x8, addend: 0x0, symName: __ZNK5boost4json6object5equalERKS1_, symObjAddr: 0x18130, symBinAddr: 0x100019490, symSize: 0x1F0 }
  - { offset: 0xE7DA1, size: 0x8, addend: 0x0, symName: __ZNK5boost4json6object5equalERKS1_, symObjAddr: 0x18130, symBinAddr: 0x100019490, symSize: 0x1F0 }
  - { offset: 0xE7E37, size: 0x8, addend: 0x0, symName: __ZN5boost4json6object12reserve_implEm, symObjAddr: 0x16E20, symBinAddr: 0x100018180, symSize: 0x264 }
  - { offset: 0xE8329, size: 0x8, addend: 0x0, symName: __ZN5boost4json6object11insert_implENS0_8pilferedINS0_14key_value_pairEEEm, symObjAddr: 0x8530, symBinAddr: 0x100009890, symSize: 0x110 }
  - { offset: 0xE8595, size: 0x8, addend: 0x0, symName: __ZN5boost4json6object11insert_implENS0_8pilferedINS0_14key_value_pairEEEm, symObjAddr: 0x8530, symBinAddr: 0x100009890, symSize: 0x110 }
  - { offset: 0xE8821, size: 0x8, addend: 0x0, symName: __ZNK5boost4json6object8containsENS_4core17basic_string_viewIcEE, symObjAddr: 0x8440, symBinAddr: 0x1000097A0, symSize: 0x30 }
  - { offset: 0xE8859, size: 0x8, addend: 0x0, symName: __ZNK5boost4json6object8containsENS_4core17basic_string_viewIcEE, symObjAddr: 0x8440, symBinAddr: 0x1000097A0, symSize: 0x30 }
  - { offset: 0xE88B9, size: 0x8, addend: 0x0, symName: __ZNK5boost4json6object5countENS_4core17basic_string_viewIcEE, symObjAddr: 0x8320, symBinAddr: 0x100009680, symSize: 0x60 }
  - { offset: 0xE88F1, size: 0x8, addend: 0x0, symName: __ZNK5boost4json6object5countENS_4core17basic_string_viewIcEE, symObjAddr: 0x8320, symBinAddr: 0x100009680, symSize: 0x60 }
  - { offset: 0xE8927, size: 0x8, addend: 0x0, symName: __ZNK5boost4json6object5countENS_4core17basic_string_viewIcEE, symObjAddr: 0x8320, symBinAddr: 0x100009680, symSize: 0x60 }
  - { offset: 0xE89C3, size: 0x8, addend: 0x0, symName: __ZN5boost4json6objectixENS_4core17basic_string_viewIcEE, symObjAddr: 0x19C60, symBinAddr: 0x10001AFC0, symSize: 0x24 }
  - { offset: 0xE8A67, size: 0x8, addend: 0x0, symName: __ZN5boost4json6object4swapERS1_, symObjAddr: 0x18820, symBinAddr: 0x100019B80, symSize: 0x1A0 }
  - { offset: 0xE8F84, size: 0x8, addend: 0x0, symName: __ZN5boost4json6object12stable_eraseENS_4core17basic_string_viewIcEE, symObjAddr: 0x95C0, symBinAddr: 0x10000A920, symSize: 0x80 }
  - { offset: 0xE8FCE, size: 0x8, addend: 0x0, symName: __ZN5boost4json6object12stable_eraseENS_4core17basic_string_viewIcEE, symObjAddr: 0x95C0, symBinAddr: 0x10000A920, symSize: 0x80 }
  - { offset: 0xE9004, size: 0x8, addend: 0x0, symName: __ZN5boost4json6object12stable_eraseENS_4core17basic_string_viewIcEE, symObjAddr: 0x95C0, symBinAddr: 0x10000A920, symSize: 0x80 }
  - { offset: 0xE91BD, size: 0x8, addend: 0x0, symName: __ZN5boost4json6object5eraseENS_4core17basic_string_viewIcEE, symObjAddr: 0x922C, symBinAddr: 0x10000A58C, symSize: 0x80 }
  - { offset: 0xE9207, size: 0x8, addend: 0x0, symName: __ZN5boost4json6object5eraseENS_4core17basic_string_viewIcEE, symObjAddr: 0x922C, symBinAddr: 0x10000A58C, symSize: 0x80 }
  - { offset: 0xE923D, size: 0x8, addend: 0x0, symName: __ZN5boost4json6object5eraseENS_4core17basic_string_viewIcEE, symObjAddr: 0x922C, symBinAddr: 0x10000A58C, symSize: 0x80 }
  - { offset: 0xE93F6, size: 0x8, addend: 0x0, symName: __ZN5boost4json6object6insertESt16initializer_listISt4pairINS_4core17basic_string_viewIcEENS0_9value_refEEE, symObjAddr: 0x20C6C, symBinAddr: 0x100021FCC, symSize: 0x614 }
  - { offset: 0xE946E, size: 0x8, addend: 0x0, symName: __ZZN5boost4json6object6insertESt16initializer_listISt4pairINS_4core17basic_string_viewIcEENS0_9value_refEEEE3loc, symObjAddr: 0x4F5A8, symBinAddr: 0x10006F308, symSize: 0x0 }
  - { offset: 0xEA42D, size: 0x8, addend: 0x0, symName: __ZN5boost4json6object5clearEv, symObjAddr: 0x9C6C, symBinAddr: 0x10000AFCC, symSize: 0x114 }
  - { offset: 0xEA453, size: 0x8, addend: 0x0, symName: __ZN5boost4json6object5clearEv, symObjAddr: 0x9C6C, symBinAddr: 0x10000AFCC, symSize: 0x114 }
  - { offset: 0xEA6D8, size: 0x8, addend: 0x0, symName: __ZN5boost4json6objectaSESt16initializer_listISt4pairINS_4core17basic_string_viewIcEENS0_9value_refEEE, symObjAddr: 0x21460, symBinAddr: 0x1000227C0, symSize: 0x180 }
  - { offset: 0xEAB90, size: 0x8, addend: 0x0, symName: __ZN5boost4json6objectaSEOS1_, symObjAddr: 0x18748, symBinAddr: 0x100019AA8, symSize: 0xD8 }
  - { offset: 0xEAE69, size: 0x8, addend: 0x0, symName: __ZN5boost4json6objectaSERKS1_, symObjAddr: 0x19780, symBinAddr: 0x10001AAE0, symSize: 0xE0 }
  - { offset: 0xEB12E, size: 0x8, addend: 0x0, symName: __ZN5boost4json6objectC1ESt16initializer_listISt4pairINS_4core17basic_string_viewIcEENS0_9value_refEEEmNS0_11storage_ptrE, symObjAddr: 0x21280, symBinAddr: 0x1000225E0, symSize: 0xEC }
  - { offset: 0xEB486, size: 0x8, addend: 0x0, symName: __ZN5boost4json6objectC1ERKS1_NS0_11storage_ptrE, symObjAddr: 0x17200, symBinAddr: 0x100018560, symSize: 0x2EC }
  - { offset: 0xEBE70, size: 0x8, addend: 0x0, symName: __ZN5boost4json6objectC1EOS1_NS0_11storage_ptrE, symObjAddr: 0x185E8, symBinAddr: 0x100019948, symSize: 0x160 }
  - { offset: 0xEC23D, size: 0x8, addend: 0x0, symName: __ZN5boost4json6objectC1EOS1_, symObjAddr: 0x82C0, symBinAddr: 0x100009620, symSize: 0x60 }
  - { offset: 0xEC265, size: 0x8, addend: 0x0, symName: __ZN5boost4json6objectC1EOS1_, symObjAddr: 0x82C0, symBinAddr: 0x100009620, symSize: 0x60 }
  - { offset: 0xEC3A4, size: 0x8, addend: 0x0, symName: __ZN5boost4json6objectC1EmNS0_11storage_ptrE, symObjAddr: 0x17140, symBinAddr: 0x1000184A0, symSize: 0xC0 }
  - { offset: 0xEC601, size: 0x8, addend: 0x0, symName: __ZN5boost4json6objectD1Ev, symObjAddr: 0x87CC, symBinAddr: 0x100009B2C, symSize: 0xB4 }
  - { offset: 0xEC623, size: 0x8, addend: 0x0, symName: __ZN5boost4json6objectD1Ev, symObjAddr: 0x87CC, symBinAddr: 0x100009B2C, symSize: 0xB4 }
  - { offset: 0xEC7A1, size: 0x8, addend: 0x0, symName: __ZN5boost4json6objectD2Ev, symObjAddr: 0x9D88, symBinAddr: 0x10000B0E8, symSize: 0xB8 }
  - { offset: 0xEC7C3, size: 0x8, addend: 0x0, symName: __ZN5boost4json6objectD2Ev, symObjAddr: 0x9D88, symBinAddr: 0x10000B0E8, symSize: 0xB8 }
  - { offset: 0xEC9C1, size: 0x8, addend: 0x0, symName: __ZN5boost4json6objectC1EONS0_6detail16unchecked_objectE, symObjAddr: 0x9640, symBinAddr: 0x10000A9A0, symSize: 0x528 }
  - { offset: 0xED7FB, size: 0x8, addend: 0x0, symName: __ZN5boost4json6detail14find_in_objectINS_4core17basic_string_viewIcEEEESt4pairIPNS0_14key_value_pairEmERKNS0_6objectET_, symObjAddr: 0x7FB0, symBinAddr: 0x100009310, symSize: 0x250 }
  - { offset: 0xEDADF, size: 0x8, addend: 0x0, symName: __ZN5boost4json17get_null_resourceEv, symObjAddr: 0x7F40, symBinAddr: 0x1000092A0, symSize: 0x70 }
  - { offset: 0xEDB00, size: 0x8, addend: 0x0, symName: __ZZN5boost4json17get_null_resourceEvE2mr, symObjAddr: 0x5A3C8, symBinAddr: 0x100070040, symSize: 0x0 }
  - { offset: 0xEDB3A, size: 0x8, addend: 0x0, symName: __ZN5boost4json6detail13null_resourceD0Ev, symObjAddr: 0x800, symBinAddr: 0x100001B60, symSize: 0x8 }
  - { offset: 0xEDB65, size: 0x8, addend: 0x0, symName: __ZN5boost4json6detail13null_resourceD1Ev, symObjAddr: 0x4F0, symBinAddr: 0x100001850, symSize: 0x10 }
  - { offset: 0xEDB8A, size: 0x8, addend: 0x0, symName: __ZNK5boost4json6detail13null_resource11do_is_equalERKNS_9container3pmr15memory_resourceE, symObjAddr: 0x4E4, symBinAddr: 0x100001844, symSize: 0xC }
  - { offset: 0xEDBC4, size: 0x8, addend: 0x0, symName: __ZN5boost4json6detail13null_resource13do_deallocateEPvmm, symObjAddr: 0x4E0, symBinAddr: 0x100001840, symSize: 0x4 }
  - { offset: 0xEDC05, size: 0x8, addend: 0x0, symName: __ZN5boost4json6detail13null_resource11do_allocateEmm, symObjAddr: 0x4D378, symBinAddr: 0x10004864C, symSize: 0x58 }
  - { offset: 0xEDC3B, size: 0x8, addend: 0x0, symName: __ZN5boost4json6detail13null_resource11do_allocateEmm, symObjAddr: 0x4D378, symBinAddr: 0x10004864C, symSize: 0x58 }
  - { offset: 0xEDDFA, size: 0x8, addend: 0x0, symName: __ZN5boost4json18monotonic_resourceC1EPhmNS0_11storage_ptrE, symObjAddr: 0x7E20, symBinAddr: 0x100009180, symSize: 0x6C }
  - { offset: 0xEDF05, size: 0x8, addend: 0x0, symName: __ZN5boost4json18monotonic_resourceC1EmNS0_11storage_ptrE, symObjAddr: 0x7D28, symBinAddr: 0x100009088, symSize: 0x80 }
  - { offset: 0xEE014, size: 0x8, addend: 0x0, symName: __ZN5boost4json18monotonic_resourceD0Ev, symObjAddr: 0x3360, symBinAddr: 0x1000046C0, symSize: 0x100 }
  - { offset: 0xEE1FD, size: 0x8, addend: 0x0, symName: __ZN5boost4json18monotonic_resourceD1Ev, symObjAddr: 0x3260, symBinAddr: 0x1000045C0, symSize: 0x100 }
  - { offset: 0xEE468, size: 0x8, addend: 0x0, symName: __ZN5boost4jsonlsERSoNS0_4kindE, symObjAddr: 0x7A28, symBinAddr: 0x100008D88, symSize: 0x180 }
  - { offset: 0xEE4A2, size: 0x8, addend: 0x0, symName: __ZN5boost4jsonlsERSoNS0_4kindE, symObjAddr: 0x7A28, symBinAddr: 0x100008D88, symSize: 0x180 }
  - { offset: 0xEE692, size: 0x8, addend: 0x0, symName: __ZNK5boost4json6detail26error_condition_category_t7messageB5cxx11Ei, symObjAddr: 0x682C, symBinAddr: 0x100007B8C, symSize: 0x174 }
  - { offset: 0xEEAEA, size: 0x8, addend: 0x0, symName: __ZNK5boost4json6detail21error_code_category_t23default_error_conditionEi, symObjAddr: 0x3C0, symBinAddr: 0x100001720, symSize: 0xCC }
  - { offset: 0xEECA2, size: 0x8, addend: 0x0, symName: __ZNK5boost4json6detail21error_code_category_t7messageB5cxx11Ei, symObjAddr: 0x6720, symBinAddr: 0x100007A80, symSize: 0x10C }
  - { offset: 0xEF093, size: 0x8, addend: 0x0, symName: __ZNK5boost4json6detail21error_code_category_t7messageEiPcm, symObjAddr: 0xE0, symBinAddr: 0x100001440, symSize: 0x2E0 }
  - { offset: 0xEF0F9, size: 0x8, addend: 0x0, symName: __ZNKSt4hashIN5boost4json5arrayEEclERKS2_, symObjAddr: 0x2CA48, symBinAddr: 0x10002DDA8, symSize: 0x3B8 }
  - { offset: 0xEFE58, size: 0x8, addend: 0x0, symName: __ZNK5boost4json5array5equalERKS1_, symObjAddr: 0x18520, symBinAddr: 0x100019880, symSize: 0xC0 }
  - { offset: 0xF0020, size: 0x8, addend: 0x0, symName: __ZN5boost4json5array6insertEPKNS0_5valueENS0_8pilferedIS2_EE, symObjAddr: 0x1AD60, symBinAddr: 0x10001C0C0, symSize: 0x224 }
  - { offset: 0xF0240, size: 0x8, addend: 0x0, symName: __ZN5boost4json5array6insertEPKNS0_5valueENS0_8pilferedIS2_EE, symObjAddr: 0x1AD60, symBinAddr: 0x10001C0C0, symSize: 0x224 }
  - { offset: 0xF065F, size: 0x8, addend: 0x0, symName: __ZN5boost4json5array9push_backENS0_8pilferedINS0_5valueEEE, symObjAddr: 0x1AA6C, symBinAddr: 0x10001BDCC, symSize: 0x178 }
  - { offset: 0xF0B40, size: 0x8, addend: 0x0, symName: __ZN5boost4json5array12reserve_implEm, symObjAddr: 0x1A164, symBinAddr: 0x10001B4C4, symSize: 0x10C }
  - { offset: 0xF0DA2, size: 0x8, addend: 0x0, symName: __ZZNK5boost4json5array6growthEmE3loc, symObjAddr: 0x4F5C0, symBinAddr: 0x10006F320, symSize: 0x0 }
  - { offset: 0xF0DBA, size: 0x8, addend: 0x0, symName: __ZN5boost4json5array4swapERS1_, symObjAddr: 0x17C2C, symBinAddr: 0x100018F8C, symSize: 0x1E0 }
  - { offset: 0xF139A, size: 0x8, addend: 0x0, symName: __ZN5boost4json5array6resizeEmRKNS0_5valueE, symObjAddr: 0x19FCC, symBinAddr: 0x10001B32C, symSize: 0x194 }
  - { offset: 0xF16AC, size: 0x8, addend: 0x0, symName: __ZN5boost4json5array8pop_backEv, symObjAddr: 0x8CA0, symBinAddr: 0x10000A000, symSize: 0x80 }
  - { offset: 0xF1791, size: 0x8, addend: 0x0, symName: __ZN5boost4json5array9push_backEONS0_5valueE, symObjAddr: 0x1ABE4, symBinAddr: 0x10001BF44, symSize: 0xBC }
  - { offset: 0xF19CD, size: 0x8, addend: 0x0, symName: __ZN5boost4json5array9push_backERKNS0_5valueE, symObjAddr: 0x1ACA0, symBinAddr: 0x10001C000, symSize: 0xC0 }
  - { offset: 0xF1C09, size: 0x8, addend: 0x0, symName: __ZN5boost4json5array5eraseEPKNS0_5valueES4_, symObjAddr: 0x8B20, symBinAddr: 0x100009E80, symSize: 0x124 }
  - { offset: 0xF1C81, size: 0x8, addend: 0x0, symName: __ZN5boost4json5array5eraseEPKNS0_5valueES4_, symObjAddr: 0x8B20, symBinAddr: 0x100009E80, symSize: 0x124 }
  - { offset: 0xF1DD3, size: 0x8, addend: 0x0, symName: __ZN5boost4json5array5eraseEPKNS0_5valueE, symObjAddr: 0x8C44, symBinAddr: 0x100009FA4, symSize: 0x5C }
  - { offset: 0xF1E15, size: 0x8, addend: 0x0, symName: __ZN5boost4json5array5eraseEPKNS0_5valueE, symObjAddr: 0x8C44, symBinAddr: 0x100009FA4, symSize: 0x5C }
  - { offset: 0xF1EAE, size: 0x8, addend: 0x0, symName: __ZN5boost4json5array6insertEPKNS0_5valueESt16initializer_listINS0_9value_refEE, symObjAddr: 0x20A00, symBinAddr: 0x100021D60, symSize: 0x80 }
  - { offset: 0xF1F9E, size: 0x8, addend: 0x0, symName: __ZN5boost4json5array6insertEPKNS0_5valueEmRS3_, symObjAddr: 0x19EB0, symBinAddr: 0x10001B210, symSize: 0x11C }
  - { offset: 0xF2250, size: 0x8, addend: 0x0, symName: __ZN5boost4json5array6insertEPKNS0_5valueEOS2_, symObjAddr: 0x1B0A8, symBinAddr: 0x10001C408, symSize: 0x124 }
  - { offset: 0xF252E, size: 0x8, addend: 0x0, symName: __ZN5boost4json5array6insertEPKNS0_5valueERS3_, symObjAddr: 0x1AF84, symBinAddr: 0x10001C2E4, symSize: 0x124 }
  - { offset: 0xF280C, size: 0x8, addend: 0x0, symName: __ZN5boost4json5array5clearEv, symObjAddr: 0x8AA4, symBinAddr: 0x100009E04, symSize: 0x7C }
  - { offset: 0xF2945, size: 0x8, addend: 0x0, symName: __ZN5boost4json5array13shrink_to_fitEv, symObjAddr: 0x11FE4, symBinAddr: 0x100013344, symSize: 0x100 }
  - { offset: 0xF2C3E, size: 0x8, addend: 0x0, symName: __ZN5boost4json5arrayaSESt16initializer_listINS0_9value_refEE, symObjAddr: 0x20B30, symBinAddr: 0x100021E90, symSize: 0x13C }
  - { offset: 0xF2FEA, size: 0x8, addend: 0x0, symName: __ZN5boost4json5arrayaSEOS1_, symObjAddr: 0x17F20, symBinAddr: 0x100019280, symSize: 0x120 }
  - { offset: 0xF3329, size: 0x8, addend: 0x0, symName: __ZN5boost4json5arrayaSERKS1_, symObjAddr: 0x17E0C, symBinAddr: 0x10001916C, symSize: 0x114 }
  - { offset: 0xF36AF, size: 0x8, addend: 0x0, symName: __ZN5boost4json5arrayC1ESt16initializer_listINS0_9value_refEENS0_11storage_ptrE, symObjAddr: 0x20950, symBinAddr: 0x100021CB0, symSize: 0xB0 }
  - { offset: 0xF38A7, size: 0x8, addend: 0x0, symName: __ZN5boost4json5arrayC1EOS1_NS0_11storage_ptrE, symObjAddr: 0x17A6C, symBinAddr: 0x100018DCC, symSize: 0x1C0 }
  - { offset: 0xF3E2D, size: 0x8, addend: 0x0, symName: __ZN5boost4json5arrayC1ERKS1_NS0_11storage_ptrE, symObjAddr: 0x177F0, symBinAddr: 0x100018B50, symSize: 0x15C }
  - { offset: 0xF424A, size: 0x8, addend: 0x0, symName: __ZN5boost4json5arrayC1ERKS1_, symObjAddr: 0x1794C, symBinAddr: 0x100018CAC, symSize: 0x94 }
  - { offset: 0xF4476, size: 0x8, addend: 0x0, symName: __ZN5boost4json5arrayC1EmNS0_11storage_ptrE, symObjAddr: 0x11F20, symBinAddr: 0x100013280, symSize: 0xC4 }
  - { offset: 0xF47AC, size: 0x8, addend: 0x0, symName: __ZN5boost4json5arrayC1EmRKNS0_5valueENS0_11storage_ptrE, symObjAddr: 0x1768C, symBinAddr: 0x1000189EC, symSize: 0x160 }
  - { offset: 0xF4AFA, size: 0x8, addend: 0x0, symName: __ZN5boost4json5arrayD1Ev, symObjAddr: 0x8DE0, symBinAddr: 0x10000A140, symSize: 0x60 }
  - { offset: 0xF4C18, size: 0x8, addend: 0x0, symName: __ZN5boost4json5arrayC1EONS0_6detail15unchecked_arrayE, symObjAddr: 0x11E60, symBinAddr: 0x1000131C0, symSize: 0xC0 }
  - { offset: 0xF4E18, size: 0x8, addend: 0x0, symName: __ZN5boost4json5array7destroyEv, symObjAddr: 0x8D20, symBinAddr: 0x10000A080, symSize: 0xC0 }
  - { offset: 0xF503C, size: 0x8, addend: 0x0, symName: __ZN5boost4json5array13revert_insertD1Ev, symObjAddr: 0x89A0, symBinAddr: 0x100009D00, symSize: 0x100 }
  - { offset: 0xF51AE, size: 0x8, addend: 0x0, symName: __ZZN5boost4json5array13revert_insertC4EPKNS0_5valueEmRS1_E3loc, symObjAddr: 0x4F5D8, symBinAddr: 0x10006F338, symSize: 0x0 }
  - { offset: 0xF51C7, size: 0x8, addend: 0x0, symName: __ZN5boost4json5array13revert_insertC1EPKNS0_5valueEmRS1_, symObjAddr: 0x19C84, symBinAddr: 0x10001AFE4, symSize: 0x22C }
  - { offset: 0xF5711, size: 0x8, addend: 0x0, symName: __ZZN5boost4json5array5table8allocateEmRKNS0_11storage_ptrEE3loc, symObjAddr: 0x4F5F0, symBinAddr: 0x10006F350, symSize: 0x0 }
  - { offset: 0xF5787, size: 0x8, addend: 0x0, symName: __ZSt27__throw_bad_optional_accessv, symObjAddr: 0x4D3D0, symBinAddr: 0x1000486A4, symSize: 0x34 }
  - { offset: 0xF57E8, size: 0x8, addend: 0x0, symName: __ZNSt19bad_optional_accessD0Ev, symObjAddr: 0x9A0, symBinAddr: 0x100001D00, symSize: 0x40 }
  - { offset: 0xF580A, size: 0x8, addend: 0x0, symName: __ZNSt19bad_optional_accessD0Ev, symObjAddr: 0x9A0, symBinAddr: 0x100001D00, symSize: 0x40 }
  - { offset: 0xF5833, size: 0x8, addend: 0x0, symName: __ZNSt19bad_optional_accessD1Ev, symObjAddr: 0x988, symBinAddr: 0x100001CE8, symSize: 0x18 }
  - { offset: 0xF5870, size: 0x8, addend: 0x0, symName: __ZNKSt19bad_optional_access4whatEv, symObjAddr: 0xC4, symBinAddr: 0x100001424, symSize: 0xC }
  - { offset: 0xF58F8, size: 0x8, addend: 0x0, symName: __ZN5boost4json15static_resourceD0Ev, symObjAddr: 0x810, symBinAddr: 0x100001B70, symSize: 0x10 }
  - { offset: 0xF5923, size: 0x8, addend: 0x0, symName: __ZN5boost4json15static_resourceD1Ev, symObjAddr: 0xC0, symBinAddr: 0x100001420, symSize: 0x4 }
  - { offset: 0xF59D4, size: 0x8, addend: 0x0, symName: __ZN5boost4json12basic_parserINS0_6detail7handlerEED1Ev, symObjAddr: 0xCF80, symBinAddr: 0x10000E2E0, symSize: 0x12C }
  - { offset: 0xF5DAD, size: 0x8, addend: 0x0, symName: __ZZN5boost4json6detail5pow10EiE3tab, symObjAddr: 0x57940, symBinAddr: 0x100058AB0, symSize: 0x0 }
  - { offset: 0xF5E0F, size: 0x8, addend: 0x0, symName: __ZN5boost4json6detail14parse_unsignedEyPKcm, symObjAddr: 0x7820, symBinAddr: 0x100008B80, symSize: 0x108 }
  - { offset: 0xF5F4E, size: 0x8, addend: 0x0, symName: __ZNK5boost4json6detail13utf8_sequence5validEv, symObjAddr: 0x74A4, symBinAddr: 0x100008804, symSize: 0x19C }
  - { offset: 0xF5F7E, size: 0x8, addend: 0x0, symName: __ZNK5boost4json6detail13utf8_sequence5validEv, symObjAddr: 0x74A4, symBinAddr: 0x100008804, symSize: 0x19C }
  - { offset: 0xF61B4, size: 0x8, addend: 0x0, symName: __ZZN5boost4json6detail13classify_utf8EcE5first, symObjAddr: 0x58C90, symBinAddr: 0x100059E00, symSize: 0x0 }
  - { offset: 0xF65D5, size: 0x8, addend: 0x0, symName: __ZZNKR5boost4json6object2atENS_4core17basic_string_viewIcEEE3loc, symObjAddr: 0x4F608, symBinAddr: 0x10006F368, symSize: 0x0 }
  - { offset: 0xF6B92, size: 0x8, addend: 0x0, symName: __ZN5boost4json14key_value_pairD1Ev, symObjAddr: 0x8EA0, symBinAddr: 0x10000A200, symSize: 0x80 }
  - { offset: 0xF6EAD, size: 0x8, addend: 0x0, symName: __ZZNKR5boost4json5value9as_stringEvE3loc, symObjAddr: 0x4F620, symBinAddr: 0x10006F380, symSize: 0x0 }
  - { offset: 0xF6F19, size: 0x8, addend: 0x0, symName: __ZZNKR5boost4json5value9as_objectEvE3loc, symObjAddr: 0x4F638, symBinAddr: 0x10006F398, symSize: 0x0 }
  - { offset: 0xF77D3, size: 0x8, addend: 0x0, symName: __ZN5boost6system12system_errorD0Ev, symObjAddr: 0x8E0, symBinAddr: 0x100001C40, symSize: 0x40 }
  - { offset: 0xF77F5, size: 0x8, addend: 0x0, symName: __ZN5boost6system12system_errorD0Ev, symObjAddr: 0x8E0, symBinAddr: 0x100001C40, symSize: 0x40 }
  - { offset: 0xF781E, size: 0x8, addend: 0x0, symName: __ZN5boost6system12system_errorD1Ev, symObjAddr: 0x8C8, symBinAddr: 0x100001C28, symSize: 0x18 }
  - { offset: 0xF786C, size: 0x8, addend: 0x0, symName: __ZN5boost6system12system_errorC1ERKNS0_10error_codeE, symObjAddr: 0xFAE0, symBinAddr: 0x100010E40, symSize: 0xA0 }
  - { offset: 0xF7A2D, size: 0x8, addend: 0x0, symName: __ZNK5boost6system14error_categorycvRKNSt3_V214error_categoryEEv, symObjAddr: 0x6C50, symBinAddr: 0x100007FB0, symSize: 0xD4 }
  - { offset: 0xF7C6E, size: 0x8, addend: 0x0, symName: __ZZNK5boost6system14error_category11init_stdcatEvE3mx_, symObjAddr: 0x5A440, symBinAddr: 0x1000700B8, symSize: 0x0 }
  - { offset: 0xF7D6E, size: 0x8, addend: 0x0, symName: __ZNK5boost6system14error_category7messageEiPcm, symObjAddr: 0x2F70, symBinAddr: 0x1000042D0, symSize: 0xD0 }
  - { offset: 0xF7F98, size: 0x8, addend: 0x0, symName: __ZNK5boost6system14error_category23default_error_conditionEi, symObjAddr: 0xB0, symBinAddr: 0x100001410, symSize: 0x10 }
  - { offset: 0xF7FD4, size: 0x8, addend: 0x0, symName: __ZNK5boost6system10error_code4whatB5cxx11Ev, symObjAddr: 0xF4E0, symBinAddr: 0x100010840, symSize: 0x600 }
  - { offset: 0xF9806, size: 0x8, addend: 0x0, symName: __ZNK5boost6system6detail22interop_error_category7messageB5cxx11Ei, symObjAddr: 0x65E0, symBinAddr: 0x100007940, symSize: 0x140 }
  - { offset: 0xF9C90, size: 0x8, addend: 0x0, symName: __ZNK5boost6system6detail22interop_error_category4nameEv, symObjAddr: 0x4C, symBinAddr: 0x1000013AC, symSize: 0x14 }
  - { offset: 0xF9CBB, size: 0x8, addend: 0x0, symName: __ZNK5boost6system6detail21system_error_category7messageEiPcm, symObjAddr: 0xB20, symBinAddr: 0x100001E80, symSize: 0x70 }
  - { offset: 0xF9D92, size: 0x8, addend: 0x0, symName: __ZNK5boost6system6detail21system_error_category7messageB5cxx11Ei, symObjAddr: 0x3500, symBinAddr: 0x100004860, symSize: 0xE4 }
  - { offset: 0xFA1D4, size: 0x8, addend: 0x0, symName: __ZNK5boost6system6detail21system_error_category23default_error_conditionEi, symObjAddr: 0x40, symBinAddr: 0x1000013A0, symSize: 0xC }
  - { offset: 0xFA254, size: 0x8, addend: 0x0, symName: __ZNK5boost6system6detail21system_error_category4nameEv, symObjAddr: 0x2C, symBinAddr: 0x10000138C, symSize: 0x14 }
  - { offset: 0xFA5B1, size: 0x8, addend: 0x0, symName: __ZNK5boost6system6detail22generic_error_category7messageB5cxx11Ei, symObjAddr: 0x35E4, symBinAddr: 0x100004944, symSize: 0xE4 }
  - { offset: 0xFA9D3, size: 0x8, addend: 0x0, symName: __ZNK5boost6system6detail22generic_error_category7messageEiPcm, symObjAddr: 0x1990, symBinAddr: 0x100002CF0, symSize: 0x70 }
  - { offset: 0xFAA76, size: 0x8, addend: 0x0, symName: __ZNK5boost6system6detail22generic_error_category4nameEv, symObjAddr: 0x20, symBinAddr: 0x100001380, symSize: 0xC }
  - { offset: 0xFAFD7, size: 0x8, addend: 0x0, symName: __ZN5boost4json6detail16default_resource6holderD1Ev, symObjAddr: 0x8, symBinAddr: 0x100001368, symSize: 0x4 }
  - { offset: 0xFB426, size: 0x8, addend: 0x0, symName: __ZN10rododendrs6RandomC1Ev, symObjAddr: 0xF148, symBinAddr: 0x1000104A8, symSize: 0xD8 }
  - { offset: 0xFB461, size: 0x8, addend: 0x0, symName: __ZN10rododendrs6RandomC1Ev, symObjAddr: 0xF148, symBinAddr: 0x1000104A8, symSize: 0xD8 }
  - { offset: 0xFB480, size: 0x8, addend: 0x0, symName: __ZN10rododendrs6RandomC1Ev, symObjAddr: 0xF148, symBinAddr: 0x1000104A8, symSize: 0xD8 }
  - { offset: 0xFBB62, size: 0x8, addend: 0x0, symName: __ZNSt10filesystem7__cxx114pathD1Ev, symObjAddr: 0x6C00, symBinAddr: 0x100007F60, symSize: 0x50 }
  - { offset: 0xFC107, size: 0x8, addend: 0x0, symName: __ZNSt7__cxx119to_stringEm, symObjAddr: 0xFB80, symBinAddr: 0x100010EE0, symSize: 0x280 }
  - { offset: 0xFCAB4, size: 0x8, addend: 0x0, symName: __ZNKSt5ctypeIcE8do_widenEc, symObjAddr: 0x0, symBinAddr: 0x100001360, symSize: 0x8 }
  - { offset: 0xFCAE3, size: 0x8, addend: 0x0, symName: __ZNK5boost6system14error_category6failedEi, symObjAddr: 0xC, symBinAddr: 0x10000136C, symSize: 0x14 }
  - { offset: 0xFCB12, size: 0x8, addend: 0x0, symName: __ZNK5boost6system6detail12std_category4nameEv, symObjAddr: 0x60, symBinAddr: 0x1000013C0, symSize: 0x20 }
  - { offset: 0xFCB39, size: 0x8, addend: 0x0, symName: __ZNK5boost6system6detail12std_category7messageB5cxx11Ei, symObjAddr: 0x80, symBinAddr: 0x1000013E0, symSize: 0x30 }
  - { offset: 0xFCB6A, size: 0x8, addend: 0x0, symName: __ZNK5boost4json6detail21error_code_category_t4nameEv, symObjAddr: 0xD0, symBinAddr: 0x100001430, symSize: 0x10 }
  - { offset: 0xFCB91, size: 0x8, addend: 0x0, symName: __ZNK5boost4json6detail26error_condition_category_t7messageEiPcm, symObjAddr: 0x48C, symBinAddr: 0x1000017EC, symSize: 0x44 }
  - { offset: 0xFCBD2, size: 0x8, addend: 0x0, symName: __ZN5boost4json18monotonic_resource13do_deallocateEPvmm, symObjAddr: 0x4D0, symBinAddr: 0x100001830, symSize: 0x10 }
  - { offset: 0xFCC0F, size: 0x8, addend: 0x0, symName: __ZNK5boost4json6detail16default_resource11do_is_equalERKNS_9container3pmr15memory_resourceE, symObjAddr: 0x504, symBinAddr: 0x100001864, symSize: 0xC }
  - { offset: 0xFCC3E, size: 0x8, addend: 0x0, symName: __ZN5boost4json6detail8charconv6detail15is_integer_charEc, symObjAddr: 0x510, symBinAddr: 0x100001870, symSize: 0x14 }
  - { offset: 0xFCC65, size: 0x8, addend: 0x0, symName: __ZN5boost4json6detail8charconv6detail11is_hex_charEc, symObjAddr: 0x524, symBinAddr: 0x100001884, symSize: 0x3C }
  - { offset: 0xFCC87, size: 0x8, addend: 0x0, symName: __ZN5boost4json6detail8charconv6detail11is_hex_charEc, symObjAddr: 0x524, symBinAddr: 0x100001884, symSize: 0x3C }
  - { offset: 0xFCCAC, size: 0x8, addend: 0x0, symName: __ZNK5boost6system6detail22interop_error_category7messageEiPcm, symObjAddr: 0x828, symBinAddr: 0x100001B88, symSize: 0x44 }
  - { offset: 0xFCCED, size: 0x8, addend: 0x0, symName: __ZN5boost4json6detail15is_invalid_zeroEPKcS3_.part.0, symObjAddr: 0x4D280, symBinAddr: 0x100048554, symSize: 0x28 }
  - { offset: 0xFCD12, size: 0x8, addend: 0x0, symName: __ZN5boost4json6detail21is_past_the_end_tokenEPKcS3_.part.0, symObjAddr: 0x4D2A8, symBinAddr: 0x10004857C, symSize: 0x28 }
  - { offset: 0xFCD37, size: 0x8, addend: 0x0, symName: __ZN5boost4json6detail13format_uint64EPcy.part.0, symObjAddr: 0xB90, symBinAddr: 0x100001EF0, symSize: 0x130 }
  - { offset: 0xFCE4A, size: 0x8, addend: 0x0, symName: __ZN5boost4json6detail5stack7reserveEm.part.0, symObjAddr: 0xCC0, symBinAddr: 0x100002020, symSize: 0xC0 }
  - { offset: 0xFCF75, size: 0x8, addend: 0x0, symName: __ZNK5boost4json6object5table6digestENS_4core17basic_string_viewIcEE.part.0, symObjAddr: 0x4D2D0, symBinAddr: 0x1000485A4, symSize: 0x28 }
  - { offset: 0xFCF9E, size: 0x8, addend: 0x0, symName: __ZNSt17_Function_handlerIFvRN5lapsa7ContextI7MyStateEEEPS5_E10_M_managerERSt9_Any_dataRKS8_St18_Manager_operation, symObjAddr: 0xE28, symBinAddr: 0x100002188, symSize: 0x3C }
  - { offset: 0xFD097, size: 0x8, addend: 0x0, symName: __ZN5boost4json6parser10write_someEPKcmRNS_6system10error_codeE.part.0, symObjAddr: 0x4D2F8, symBinAddr: 0x1000485CC, symSize: 0x28 }
  - { offset: 0xFD0D2, size: 0x8, addend: 0x0, symName: __ZNK5boost6system14error_category10equivalentEiRKNS0_15error_conditionE, symObjAddr: 0xE80, symBinAddr: 0x1000021E0, symSize: 0xAC }
  - { offset: 0xFD1B7, size: 0x8, addend: 0x0, symName: __ZNSt8_Rb_treeImmSt9_IdentityImESt4lessImESaImEE24_M_get_insert_unique_posERKm.isra.0, symObjAddr: 0xF2C, symBinAddr: 0x10000228C, symSize: 0xB4 }
  - { offset: 0xFD351, size: 0x8, addend: 0x0, symName: __ZNSt8_Rb_treeImmSt9_IdentityImESt4lessImESaImEE8_M_eraseEPSt13_Rb_tree_nodeImE.isra.0, symObjAddr: 0xFE0, symBinAddr: 0x100002340, symSize: 0x40 }
  - { offset: 0xFD4A0, size: 0x8, addend: 0x0, symName: __ZNSt8_Rb_treeImmSt9_IdentityImESt4lessImESaImEE7_M_copyILb0ENS5_11_Alloc_nodeEEEPSt13_Rb_tree_nodeImESA_PSt18_Rb_tree_node_baseRT0_.isra.0, symObjAddr: 0x1020, symBinAddr: 0x100002380, symSize: 0xD0 }
  - { offset: 0xFD858, size: 0x8, addend: 0x0, symName: __ZNSt8_Rb_treeImmSt9_IdentityImESt4lessImESaImEE5eraseERKm.isra.0, symObjAddr: 0x10F0, symBinAddr: 0x100002450, symSize: 0x178 }
  - { offset: 0xFDD1B, size: 0x8, addend: 0x0, symName: __ZNSt6vectorImSaImEEaSERKS1_.isra.0, symObjAddr: 0x1268, symBinAddr: 0x1000025C8, symSize: 0x178 }
  - { offset: 0xFE63D, size: 0x8, addend: 0x0, symName: __ZN5boost15throw_exceptionISt9bad_allocEEvRKT_RKNS_15source_locationE.isra.0, symObjAddr: 0x4D320, symBinAddr: 0x1000485F4, symSize: 0x58 }
  - { offset: 0xFE75E, size: 0x8, addend: 0x0, symName: __ZNSt7__cxx1112basic_stringIcSt11char_traitsIcESaIcEEaSEOS4_.isra.0, symObjAddr: 0x13E0, symBinAddr: 0x100002740, symSize: 0x100 }
  - { offset: 0xFEB48, size: 0x8, addend: 0x0, symName: __ZNKSt7__cxx1112basic_stringIcSt11char_traitsIcESaIcEE7compareERKS4_.isra.0, symObjAddr: 0x14E0, symBinAddr: 0x100002840, symSize: 0x60 }
  - { offset: 0xFEC1A, size: 0x8, addend: 0x0, symName: __ZN5boost4json6object5table10deallocateEPS2_RKNS0_11storage_ptrE.isra.0, symObjAddr: 0x1540, symBinAddr: 0x1000028A0, symSize: 0x60 }
  - { offset: 0xFED2D, size: 0x8, addend: 0x0, symName: __ZNK5boost4json11storage_ptr7releaseEv.isra.0, symObjAddr: 0x15A0, symBinAddr: 0x100002900, symSize: 0x40 }
  - { offset: 0xFED4B, size: 0x8, addend: 0x0, symName: __ZNK5boost4json11storage_ptr7releaseEv.isra.0, symObjAddr: 0x15A0, symBinAddr: 0x100002900, symSize: 0x40 }
  - { offset: 0xFEDE9, size: 0x8, addend: 0x0, symName: __ZNK5boost6system14error_category10equivalentERKNS0_10error_codeEi, symObjAddr: 0x1600, symBinAddr: 0x100002960, symSize: 0xE0 }
  - { offset: 0xFEE1D, size: 0x8, addend: 0x0, symName: __ZNK5boost6system14error_category10equivalentERKNS0_10error_codeEi, symObjAddr: 0x1600, symBinAddr: 0x100002960, symSize: 0xE0 }
  - { offset: 0xFEF3C, size: 0x8, addend: 0x0, symName: __ZNSt8_Rb_treeImmSt9_IdentityImESt4lessImESaImEE7_M_copyILb0ENS5_20_Reuse_or_alloc_nodeEEEPSt13_Rb_tree_nodeImESA_PSt18_Rb_tree_node_baseRT0_.isra.0, symObjAddr: 0x16E0, symBinAddr: 0x100002A40, symSize: 0x1E0 }
  - { offset: 0xFF5A6, size: 0x8, addend: 0x0, symName: __ZNSt8_Rb_treeImmSt9_IdentityImESt4lessImESaImEEaSERKS5_.isra.0, symObjAddr: 0x18C0, symBinAddr: 0x100002C20, symSize: 0xD0 }
  - { offset: 0xFF764, size: 0x8, addend: 0x0, symName: __ZNSt7__cxx1112basic_stringIcSt11char_traitsIcESaIcEE12_M_constructIPcEEvT_S7_St20forward_iterator_tag.isra.0, symObjAddr: 0x21C4, symBinAddr: 0x100003524, symSize: 0xC0 }
  - { offset: 0xFFAB9, size: 0x8, addend: 0x0, symName: __ZNSt7__cxx1112basic_stringIcSt11char_traitsIcESaIcEEC1IS3_EEPKcRKS3_.isra.0, symObjAddr: 0x2284, symBinAddr: 0x1000035E4, symSize: 0xC8 }
  - { offset: 0xFFE7D, size: 0x8, addend: 0x0, symName: __ZSt4endlIcSt11char_traitsIcEERSt13basic_ostreamIT_T0_ES6_.isra.0, symObjAddr: 0x234C, symBinAddr: 0x1000036AC, symSize: 0x7C }
  - { offset: 0xFFF6F, size: 0x8, addend: 0x0, symName: __ZN5boost4json18monotonic_resource11do_allocateEmm, symObjAddr: 0x23C8, symBinAddr: 0x100003728, symSize: 0x1F8 }
  - { offset: 0x1001F9, size: 0x8, addend: 0x0, symName: __ZNSt8_Rb_treeImSt4pairIKmdESt10_Select1stIS2_ESt4lessImESaIS2_EE8_M_eraseEPSt13_Rb_tree_nodeIS2_E.isra.0, symObjAddr: 0x262C, symBinAddr: 0x10000398C, symSize: 0x140 }
  - { offset: 0x100EF8, size: 0x8, addend: 0x0, symName: __ZNSt8_Rb_treeINSt7__cxx1112basic_stringIcSt11char_traitsIcESaIcEEESt4pairIKS5_S5_ESt10_Select1stIS8_ESt4lessIS5_ESaIS8_EE24_M_get_insert_unique_posERS7_.isra.0, symObjAddr: 0x29C4, symBinAddr: 0x100003D24, symSize: 0x14C }
  - { offset: 0x1012B3, size: 0x8, addend: 0x0, symName: __ZNSt8_Rb_treeINSt7__cxx1112basic_stringIcSt11char_traitsIcESaIcEEESt4pairIKS5_S5_ESt10_Select1stIS8_ESt4lessIS5_ESaIS8_EE8_M_eraseEPSt13_Rb_tree_nodeIS8_E.isra.0, symObjAddr: 0x2C00, symBinAddr: 0x100003F60, symSize: 0x80 }
  - { offset: 0x1017A9, size: 0x8, addend: 0x0, symName: __ZN9__gnu_cxx12__to_xstringINSt7__cxx1112basic_stringIcSt11char_traitsIcESaIcEEEcEET_PFiPT0_mPKS8_PcEmSB_z.constprop.0, symObjAddr: 0x3460, symBinAddr: 0x1000047C0, symSize: 0xA0 }
  - { offset: 0x101B50, size: 0x8, addend: 0x0, symName: __ZN5boost4json6detail8charconv6detail10fast_float10digit_compIdcEENS4_17adjusted_mantissaERNS4_22parsed_number_string_tIT0_EES6_.isra.0, symObjAddr: 0x39EC, symBinAddr: 0x100004D4C, symSize: 0x1E14 }
  - { offset: 0x1063DF, size: 0x8, addend: 0x0, symName: __ZN5boost4json6detail8charconv6detail10fast_float19from_chars_advancedIdcEENS2_19from_chars_result_tIT0_EEPKS7_SA_RT_NS4_15parse_options_tIS7_EE.isra.0, symObjAddr: 0x5800, symBinAddr: 0x100006B60, symSize: 0xCC0 }
  - { offset: 0x106E18, size: 0x8, addend: 0x0, symName: __ZN5lapsa8init_logI7MyStateEEvRNS_7ContextIT_EE, symObjAddr: 0x64C0, symBinAddr: 0x100007820, symSize: 0x120 }
  - { offset: 0x1070DA, size: 0x8, addend: 0x0, symName: __ZNSt8_Rb_treeImSt4pairIKmdESt10_Select1stIS2_ESt4lessImESaIS2_EE22_M_emplace_hint_uniqueIJRKSt21piecewise_construct_tSt5tupleIJRS1_EESD_IJEEEEESt17_Rb_tree_iteratorIS2_ESt23_Rb_tree_const_iteratorIS2_EDpOT_.isra.0, symObjAddr: 0x69A0, symBinAddr: 0x100007D00, symSize: 0x260 }
  - { offset: 0x10798E, size: 0x8, addend: 0x0, symName: __ZNK5boost6system6detail12std_category10equivalentERKSt10error_codei, symObjAddr: 0x6D24, symBinAddr: 0x100008084, symSize: 0x2E0 }
  - { offset: 0x107D98, size: 0x8, addend: 0x0, symName: __ZNK5boost6system6detail12std_category23default_error_conditionEi, symObjAddr: 0x7004, symBinAddr: 0x100008364, symSize: 0x5C }
  - { offset: 0x107DE5, size: 0x8, addend: 0x0, symName: __ZNK5boost6system6detail12std_category10equivalentEiRKSt15error_condition, symObjAddr: 0x7060, symBinAddr: 0x1000083C0, symSize: 0x2E4 }
  - { offset: 0x1082F6, size: 0x8, addend: 0x0, symName: __ZN5boost4json15make_error_codeENS0_5errorE, symObjAddr: 0x7344, symBinAddr: 0x1000086A4, symSize: 0x20 }
  - { offset: 0x108316, size: 0x8, addend: 0x0, symName: __ZN5boost4json15make_error_codeENS0_5errorE, symObjAddr: 0x7344, symBinAddr: 0x1000086A4, symSize: 0x20 }
  - { offset: 0x108379, size: 0x8, addend: 0x0, symName: __ZN5boost4json6detail11string_impl7destroyERKNS0_11storage_ptrE, symObjAddr: 0x7364, symBinAddr: 0x1000086C4, symSize: 0x9C }
  - { offset: 0x1084C8, size: 0x8, addend: 0x0, symName: __ZN5boost4json6detail6stream6appendEPKcm, symObjAddr: 0x7400, symBinAddr: 0x100008760, symSize: 0x60 }
  - { offset: 0x108524, size: 0x8, addend: 0x0, symName: __ZN5boost4json6detail6stream6appendEc, symObjAddr: 0x7460, symBinAddr: 0x1000087C0, symSize: 0x44 }
  - { offset: 0x108555, size: 0x8, addend: 0x0, symName: __ZN5boost4json6detail11count_validILb0EEEPKcS4_S4_, symObjAddr: 0x7640, symBinAddr: 0x1000089A0, symSize: 0x1E0 }
  - { offset: 0x1086F1, size: 0x8, addend: 0x0, symName: __ZN5boost4json5array5table10deallocateEPS2_RKNS0_11storage_ptrE, symObjAddr: 0x7928, symBinAddr: 0x100008C88, symSize: 0x44 }
  - { offset: 0x1087A1, size: 0x8, addend: 0x0, symName: __ZN5boost4json9to_stringENS0_4kindE, symObjAddr: 0x796C, symBinAddr: 0x100008CCC, symSize: 0xBC }
  - { offset: 0x1087C8, size: 0x8, addend: 0x0, symName: __ZN5boost4json18monotonic_resource7releaseEv, symObjAddr: 0x7E8C, symBinAddr: 0x1000091EC, symSize: 0xB4 }
  - { offset: 0x10888D, size: 0x8, addend: 0x0, symName: __ZNK5boost4json6object5table6digestENS_4core17basic_string_viewIcEE, symObjAddr: 0x8200, symBinAddr: 0x100009560, symSize: 0x60 }
  - { offset: 0x10892A, size: 0x8, addend: 0x0, symName: __ZN5boost4json6object4findENS_4core17basic_string_viewIcEE, symObjAddr: 0x8380, symBinAddr: 0x1000096E0, symSize: 0x60 }
  - { offset: 0x108960, size: 0x8, addend: 0x0, symName: __ZN5boost4json6object4findENS_4core17basic_string_viewIcEE, symObjAddr: 0x8380, symBinAddr: 0x1000096E0, symSize: 0x60 }
  - { offset: 0x108A58, size: 0x8, addend: 0x0, symName: __ZNK5boost4json6object11if_containsENS_4core17basic_string_viewIcEE, symObjAddr: 0x8470, symBinAddr: 0x1000097D0, symSize: 0x60 }
  - { offset: 0x108A8E, size: 0x8, addend: 0x0, symName: __ZNK5boost4json6object11if_containsENS_4core17basic_string_viewIcEE, symObjAddr: 0x8470, symBinAddr: 0x1000097D0, symSize: 0x60 }
  - { offset: 0x108AC4, size: 0x8, addend: 0x0, symName: __ZNK5boost4json6object11if_containsENS_4core17basic_string_viewIcEE, symObjAddr: 0x8470, symBinAddr: 0x1000097D0, symSize: 0x60 }
  - { offset: 0x108B5B, size: 0x8, addend: 0x0, symName: __ZN5boost4json6object5eraseEPKNS0_14key_value_pairE, symObjAddr: 0x9220, symBinAddr: 0x10000A580, symSize: 0xC }
  - { offset: 0x108B8C, size: 0x8, addend: 0x0, symName: __ZN5boost4json6object12stable_eraseEPKNS0_14key_value_pairE, symObjAddr: 0x95B0, symBinAddr: 0x10000A910, symSize: 0x10 }
  - { offset: 0x108BBD, size: 0x8, addend: 0x0, symName: __ZN5boost4json6object13revert_insert7destroyEv, symObjAddr: 0x9B6C, symBinAddr: 0x10000AECC, symSize: 0x100 }
  - { offset: 0x108DA1, size: 0x8, addend: 0x0, symName: __ZN5boost4json6object16revert_construct7destroyEv, symObjAddr: 0x9D80, symBinAddr: 0x10000B0E0, symSize: 0x8 }
  - { offset: 0x108DC8, size: 0x8, addend: 0x0, symName: __ZN5boost4json6parser5resetENS0_11storage_ptrE, symObjAddr: 0x9E40, symBinAddr: 0x10000B1A0, symSize: 0xE4 }
  - { offset: 0x10910F, size: 0x8, addend: 0x0, symName: __ZN5boost4json6detaileqENS1_13pointer_token8iteratorES3_, symObjAddr: 0xA1A8, symBinAddr: 0x10000B508, symSize: 0x18 }
  - { offset: 0x109139, size: 0x8, addend: 0x0, symName: __ZN5boost4json6detaileqENS1_13pointer_token8iteratorES3_, symObjAddr: 0xA1A8, symBinAddr: 0x10000B508, symSize: 0x18 }
  - { offset: 0x109159, size: 0x8, addend: 0x0, symName: __ZN5boost4json6detaileqENS1_13pointer_token8iteratorES3_, symObjAddr: 0xA1A8, symBinAddr: 0x10000B508, symSize: 0x18 }
  - { offset: 0x10917E, size: 0x8, addend: 0x0, symName: __ZN5boost4json6detailneENS1_13pointer_token8iteratorES3_, symObjAddr: 0xA1C0, symBinAddr: 0x10000B520, symSize: 0xC }
  - { offset: 0x1091A8, size: 0x8, addend: 0x0, symName: __ZN5boost4json6detailneENS1_13pointer_token8iteratorES3_, symObjAddr: 0xA1C0, symBinAddr: 0x10000B520, symSize: 0xC }
  - { offset: 0x1091C8, size: 0x8, addend: 0x0, symName: __ZN5boost4json6detailneENS1_13pointer_token8iteratorES3_, symObjAddr: 0xA1C0, symBinAddr: 0x10000B520, symSize: 0xC }
  - { offset: 0x1091ED, size: 0x8, addend: 0x0, symName: __ZNK5boost4json6detail13pointer_token5beginEv, symObjAddr: 0xA1CC, symBinAddr: 0x10000B52C, symSize: 0x14 }
  - { offset: 0x109214, size: 0x8, addend: 0x0, symName: __ZNK5boost4json6detail13pointer_token3endEv, symObjAddr: 0xA1E0, symBinAddr: 0x10000B540, symSize: 0x8 }
  - { offset: 0x10923B, size: 0x8, addend: 0x0, symName: __ZN5boost4json6detaileqENS1_13pointer_tokenENS_4core17basic_string_viewIcEE, symObjAddr: 0xA1E8, symBinAddr: 0x10000B548, symSize: 0xB8 }
  - { offset: 0x10928B, size: 0x8, addend: 0x0, symName: __ZN5boost4json6detaileqENS1_13pointer_tokenENS_4core17basic_string_viewIcEE, symObjAddr: 0xA1E8, symBinAddr: 0x10000B548, symSize: 0xB8 }
  - { offset: 0x1092AB, size: 0x8, addend: 0x0, symName: __ZN5boost4json6detaileqENS1_13pointer_tokenENS_4core17basic_string_viewIcEE, symObjAddr: 0xA1E8, symBinAddr: 0x10000B548, symSize: 0xB8 }
  - { offset: 0x109372, size: 0x8, addend: 0x0, symName: __ZN5boost4json6detail15is_invalid_zeroEPKcS3_, symObjAddr: 0xA2A0, symBinAddr: 0x10000B600, symSize: 0x40 }
  - { offset: 0x1093A3, size: 0x8, addend: 0x0, symName: __ZN5boost4json6detail21is_past_the_end_tokenEPKcS3_, symObjAddr: 0xA2E0, symBinAddr: 0x10000B640, symSize: 0x44 }
  - { offset: 0x1093D4, size: 0x8, addend: 0x0, symName: __ZN5boost4json10serializer5resetEPKNS0_5valueE, symObjAddr: 0xA80C, symBinAddr: 0x10000BB6C, symSize: 0x34 }
  - { offset: 0x10941E, size: 0x8, addend: 0x0, symName: __ZN5boost4json10serializer5resetEPKNS0_5arrayE, symObjAddr: 0xA840, symBinAddr: 0x10000BBA0, symSize: 0x28 }
  - { offset: 0x109468, size: 0x8, addend: 0x0, symName: __ZN5boost4json10serializer5resetEPKNS0_6objectE, symObjAddr: 0xA868, symBinAddr: 0x10000BBC8, symSize: 0x28 }
  - { offset: 0x1094B2, size: 0x8, addend: 0x0, symName: __ZN5boost4json10serializer5resetEPKNS0_6stringE, symObjAddr: 0xA890, symBinAddr: 0x10000BBF0, symSize: 0x70 }
  - { offset: 0x1094DC, size: 0x8, addend: 0x0, symName: __ZN5boost4json10serializer5resetEPKNS0_6stringE, symObjAddr: 0xA890, symBinAddr: 0x10000BBF0, symSize: 0x70 }
  - { offset: 0x109500, size: 0x8, addend: 0x0, symName: __ZN5boost4json10serializer5resetEPKNS0_6stringE, symObjAddr: 0xA890, symBinAddr: 0x10000BBF0, symSize: 0x70 }
  - { offset: 0x1095B7, size: 0x8, addend: 0x0, symName: __ZN5boost4json10serializer5resetENS_4core17basic_string_viewIcEE, symObjAddr: 0xA900, symBinAddr: 0x10000BC60, symSize: 0x2C }
  - { offset: 0x10963B, size: 0x8, addend: 0x0, symName: __ZN5boost4json10serializer4readEPcm, symObjAddr: 0xA92C, symBinAddr: 0x10000BC8C, symSize: 0x134 }
  - { offset: 0x109809, size: 0x8, addend: 0x0, symName: __ZN5boost4json11value_stack5stack4pushIJRbRNS0_11storage_ptrEEEERNS0_5valueEDpOT_.isra.0, symObjAddr: 0xB580, symBinAddr: 0x10000C8E0, symSize: 0xC0 }
  - { offset: 0x109A2A, size: 0x8, addend: 0x0, symName: __ZN5boost4json11value_stack5stack4pushIJRdRNS0_11storage_ptrEEEERNS0_5valueEDpOT_.isra.0, symObjAddr: 0xB640, symBinAddr: 0x10000C9A0, symSize: 0xC0 }
  - { offset: 0x109C4B, size: 0x8, addend: 0x0, symName: __ZN5boost4json11value_stack5stack4pushIJRyRNS0_11storage_ptrEEEERNS0_5valueEDpOT_.isra.0, symObjAddr: 0xB700, symBinAddr: 0x10000CA60, symSize: 0xC0 }
  - { offset: 0x109E6C, size: 0x8, addend: 0x0, symName: __ZN5boost4json11value_stack5stack4pushIJRxRNS0_11storage_ptrEEEERNS0_5valueEDpOT_.isra.0, symObjAddr: 0xB7C0, symBinAddr: 0x10000CB20, symSize: 0xC0 }
  - { offset: 0x10A091, size: 0x8, addend: 0x0, symName: __ZN5boost4json11value_stack5resetENS0_11storage_ptrE, symObjAddr: 0xBD60, symBinAddr: 0x10000D0C0, symSize: 0xC0 }
  - { offset: 0x10A28A, size: 0x8, addend: 0x0, symName: __ZN5boost4json11value_stack7releaseEv, symObjAddr: 0xBE20, symBinAddr: 0x10000D180, symSize: 0x10C }
  - { offset: 0x10A56A, size: 0x8, addend: 0x0, symName: __ZN5boost4json11value_stack10push_charsENS_4core17basic_string_viewIcEE, symObjAddr: 0xC0C0, symBinAddr: 0x10000D420, symSize: 0x4 }
  - { offset: 0x10A59B, size: 0x8, addend: 0x0, symName: __ZN5boost4json11value_stack10push_int64Ex, symObjAddr: 0xC340, symBinAddr: 0x10000D6A0, symSize: 0x20 }
  - { offset: 0x10A5CC, size: 0x8, addend: 0x0, symName: __ZN5boost4json11value_stack11push_uint64Ey, symObjAddr: 0xC360, symBinAddr: 0x10000D6C0, symSize: 0xA4 }
  - { offset: 0x10A81B, size: 0x8, addend: 0x0, symName: __ZN5boost4json11value_stack11push_doubleEd, symObjAddr: 0xC404, symBinAddr: 0x10000D764, symSize: 0x20 }
  - { offset: 0x10A84C, size: 0x8, addend: 0x0, symName: __ZN5boost4json11value_stack9push_boolEb, symObjAddr: 0xC424, symBinAddr: 0x10000D784, symSize: 0xA4 }
  - { offset: 0x10AA9B, size: 0x8, addend: 0x0, symName: __ZN5boost4json11value_stack9push_nullEv, symObjAddr: 0xC4C8, symBinAddr: 0x10000D828, symSize: 0xB8 }
  - { offset: 0x10ACBE, size: 0x8, addend: 0x0, symName: __ZN5boost4json6detail13format_uint64EPcy, symObjAddr: 0xC5E0, symBinAddr: 0x10000D940, symSize: 0x20 }
  - { offset: 0x10AD01, size: 0x8, addend: 0x0, symName: __ZN5boost4json6detail5stack7reserveEm, symObjAddr: 0xD0E0, symBinAddr: 0x10000E440, symSize: 0x20 }
  - { offset: 0x10AD38, size: 0x8, addend: 0x0, symName: __ZN5boost4json6detail13format_doubleEPcdb, symObjAddr: 0xE44C, symBinAddr: 0x10000F7AC, symSize: 0x4 }
  - { offset: 0x10AD73, size: 0x8, addend: 0x0, symName: __ZN5boost4json6detail8charconv6detail10num_digitsIyEEiT_, symObjAddr: 0xE450, symBinAddr: 0x10000F7B0, symSize: 0x190 }
  - { offset: 0x10ADBA, size: 0x8, addend: 0x0, symName: __ZNSt7__cxx1112basic_stringIcSt11char_traitsIcESaIcEE6appendEPKc, symObjAddr: 0xF3B0, symBinAddr: 0x100010710, symSize: 0x100 }
  - { offset: 0x10B056, size: 0x8, addend: 0x0, symName: __ZNSt7__cxx1112basic_stringIcSt11char_traitsIcESaIcEE10_M_disposeEv, symObjAddr: 0xF4B0, symBinAddr: 0x100010810, symSize: 0x30 }
  - { offset: 0x10B078, size: 0x8, addend: 0x0, symName: __ZNSt7__cxx1112basic_stringIcSt11char_traitsIcESaIcEE10_M_disposeEv, symObjAddr: 0xF4B0, symBinAddr: 0x100010810, symSize: 0x30 }
  - { offset: 0x10B098, size: 0x8, addend: 0x0, symName: __ZNSt7__cxx1112basic_stringIcSt11char_traitsIcESaIcEE10_M_disposeEv, symObjAddr: 0xF4B0, symBinAddr: 0x100010810, symSize: 0x30 }
  - { offset: 0x10B194, size: 0x8, addend: 0x0, symName: __ZStplIcSt11char_traitsIcESaIcEENSt7__cxx1112basic_stringIT_T0_T1_EERKS8_PKS5_.isra.0, symObjAddr: 0xFE00, symBinAddr: 0x100011160, symSize: 0x248 }
  - { offset: 0x10BB53, size: 0x8, addend: 0x0, symName: __ZN5boost4jsonL14serialize_implERNSt7__cxx1112basic_stringIcSt11char_traitsIcESaIcEEERNS0_10serializerE.constprop.0, symObjAddr: 0x10048, symBinAddr: 0x1000113A8, symSize: 0x4A8 }
  - { offset: 0x10CD8F, size: 0x8, addend: 0x0, symName: __ZN5boost4json6detail17if_contains_tokenERKNS0_6objectENS1_13pointer_tokenE, symObjAddr: 0x10B40, symBinAddr: 0x100011EA0, symSize: 0x28 }
  - { offset: 0x10CDC5, size: 0x8, addend: 0x0, symName: __ZN5boost4json6detail17if_contains_tokenERKNS0_6objectENS1_13pointer_tokenE, symObjAddr: 0x10B40, symBinAddr: 0x100011EA0, symSize: 0x28 }
  - { offset: 0x10CDE7, size: 0x8, addend: 0x0, symName: __ZN5boost4json6detail12walk_pointerIKNS0_5valueEZNKS3_12find_pointerENS_4core17basic_string_viewIcEERNS_6system10error_codeEEUlRKNS0_6objectENS1_13pointer_tokenEE_ZNKS3_12find_pointerES7_SA_EUlRKNS0_5arrayEmSA_E_ZNKS3_12find_pointerES7_SA_EUlRS4_S7_E_EEPT_RSM_S7_SA_T0_T1_T2_.isra.0, symObjAddr: 0x10B68, symBinAddr: 0x100011EC8, symSize: 0x23C }
  - { offset: 0x10D3A1, size: 0x8, addend: 0x0, symName: __ZNK5boost4json5value12find_pointerENS_4core17basic_string_viewIcEERSt10error_code, symObjAddr: 0x10DA4, symBinAddr: 0x100012104, symSize: 0x9C }
  - { offset: 0x10D486, size: 0x8, addend: 0x0, symName: __ZNK5boost4json5value12find_pointerENS_4core17basic_string_viewIcEERNS_6system10error_codeE, symObjAddr: 0x10E48, symBinAddr: 0x1000121A8, symSize: 0x8 }
  - { offset: 0x10D4C1, size: 0x8, addend: 0x0, symName: __ZNSt7__cxx1112basic_stringIcSt11char_traitsIcESaIcEE6appendEPKcm, symObjAddr: 0x10EE0, symBinAddr: 0x100012240, symSize: 0xE0 }
  - { offset: 0x10D73C, size: 0x8, addend: 0x0, symName: __ZN5boost4json6detail5stack4pushIPKNS0_6objectEEEvRKT_, symObjAddr: 0x11A24, symBinAddr: 0x100012D84, symSize: 0x5C }
  - { offset: 0x10D7AB, size: 0x8, addend: 0x0, symName: __ZN5boost4json6detail5stack4pushIPKNS0_14key_value_pairEEEvRKT_, symObjAddr: 0x11A80, symBinAddr: 0x100012DE0, symSize: 0x50 }
  - { offset: 0x10D816, size: 0x8, addend: 0x0, symName: __ZN5boost4json6parser7releaseEv.part.0, symObjAddr: 0x11B24, symBinAddr: 0x100012E84, symSize: 0x88 }
  - { offset: 0x10DA9D, size: 0x8, addend: 0x0, symName: __ZN5boost4json6parser7releaseEv, symObjAddr: 0x11BAC, symBinAddr: 0x100012F0C, symSize: 0x118 }
  - { offset: 0x10DDA2, size: 0x8, addend: 0x0, symName: __ZN5boost4json5array5table8allocateEmRKNS0_11storage_ptrE, symObjAddr: 0x11DC0, symBinAddr: 0x100013120, symSize: 0xA0 }
  - { offset: 0x10DE99, size: 0x8, addend: 0x0, symName: __ZN5boost4json6string5eraseEmm, symObjAddr: 0x12440, symBinAddr: 0x1000137A0, symSize: 0x188 }
  - { offset: 0x10DFF5, size: 0x8, addend: 0x0, symName: __ZN5boost4json6detail11string_impl6growthEmm.part.0, symObjAddr: 0x125C8, symBinAddr: 0x100013928, symSize: 0x18 }
  - { offset: 0x10E028, size: 0x8, addend: 0x0, symName: __ZN5boost4json6detail11string_impl6growthEmm, symObjAddr: 0x125E0, symBinAddr: 0x100013940, symSize: 0x40 }
  - { offset: 0x10E07F, size: 0x8, addend: 0x0, symName: __ZN5boost4json6detail11string_impl6assignEmRKNS0_11storage_ptrE, symObjAddr: 0x127C0, symBinAddr: 0x100013B20, symSize: 0x220 }
  - { offset: 0x10E374, size: 0x8, addend: 0x0, symName: __ZN5boost4json6string6assignEOS1_, symObjAddr: 0x12B00, symBinAddr: 0x100013E60, symSize: 0x120 }
  - { offset: 0x10E5C7, size: 0x8, addend: 0x0, symName: __ZN5boost4json6string6assignEmc, symObjAddr: 0x12E44, symBinAddr: 0x1000141A4, symSize: 0x21C }
  - { offset: 0x10E923, size: 0x8, addend: 0x0, symName: __ZN5boost4json6string6assignEPKcm, symObjAddr: 0x13060, symBinAddr: 0x1000143C0, symSize: 0x250 }
  - { offset: 0x10EC80, size: 0x8, addend: 0x0, symName: __ZN5boost4json6stringaSEPKc, symObjAddr: 0x13500, symBinAddr: 0x100014860, symSize: 0x260 }
  - { offset: 0x10F051, size: 0x8, addend: 0x0, symName: __ZN5boost4json6string6assignERKS1_, symObjAddr: 0x14E80, symBinAddr: 0x1000161E0, symSize: 0x280 }
  - { offset: 0x10F45A, size: 0x8, addend: 0x0, symName: __ZN5boost4json6detail11string_impl13shrink_to_fitERKNS0_11storage_ptrE, symObjAddr: 0x15AA0, symBinAddr: 0x100016E00, symSize: 0x1C0 }
  - { offset: 0x10F746, size: 0x8, addend: 0x0, symName: __ZN5boost4json5valueaSERKS1_, symObjAddr: 0x18D00, symBinAddr: 0x10001A060, symSize: 0xC8 }
  - { offset: 0x10F936, size: 0x8, addend: 0x0, symName: __ZN5boost4json6object12emplace_implIJRNS_4core17basic_string_viewIcEEDnEEESt4pairIPNS0_14key_value_pairEbES5_DpOT_.isra.0, symObjAddr: 0x19928, symBinAddr: 0x10001AC88, symSize: 0x338 }
  - { offset: 0x10FF44, size: 0x8, addend: 0x0, symName: __ZN5boost4json5array6resizeEm, symObjAddr: 0x1A270, symBinAddr: 0x10001B5D0, symSize: 0x130 }
  - { offset: 0x110229, size: 0x8, addend: 0x0, symName: __ZN5boost4json6string5eraseEPKcS3_, symObjAddr: 0x1B380, symBinAddr: 0x10001C6E0, symSize: 0x184 }
  - { offset: 0x11042D, size: 0x8, addend: 0x0, symName: __ZN6garaza7StorageImE4sizeEv, symObjAddr: 0x1C340, symBinAddr: 0x10001D6A0, symSize: 0x1B0 }
  - { offset: 0x11044F, size: 0x8, addend: 0x0, symName: __ZN6garaza7StorageImE4sizeEv, symObjAddr: 0x1C340, symBinAddr: 0x10001D6A0, symSize: 0x1B0 }
  - { offset: 0x11048E, size: 0x8, addend: 0x0, symName: __ZN6garaza7StorageImE4sizeEv, symObjAddr: 0x1C340, symBinAddr: 0x10001D6A0, symSize: 0x1B0 }
  - { offset: 0x110BA2, size: 0x8, addend: 0x0, symName: __ZN6garaza7StorageImE5emptyEv, symObjAddr: 0x1C4F0, symBinAddr: 0x10001D850, symSize: 0x1B4 }
  - { offset: 0x110BC4, size: 0x8, addend: 0x0, symName: __ZN6garaza7StorageImE5emptyEv, symObjAddr: 0x1C4F0, symBinAddr: 0x10001D850, symSize: 0x1B4 }
  - { offset: 0x110C03, size: 0x8, addend: 0x0, symName: __ZN6garaza7StorageImE5emptyEv, symObjAddr: 0x1C4F0, symBinAddr: 0x10001D850, symSize: 0x1B4 }
  - { offset: 0x1112FB, size: 0x8, addend: 0x0, symName: __ZN6garaza7StorageImE2atEm, symObjAddr: 0x1C6A4, symBinAddr: 0x10001DA04, symSize: 0xC0 }
  - { offset: 0x1114F4, size: 0x8, addend: 0x0, symName: __ZN7MyStateaSERKS_.isra.0, symObjAddr: 0x1C960, symBinAddr: 0x10001DCC0, symSize: 0xC48 }
  - { offset: 0x114ED5, size: 0x8, addend: 0x0, symName: __ZN8grafiins5GraphIN5tante6NeuronENS1_10ConnectionEE10add_vertexES2_, symObjAddr: 0x1D5A8, symBinAddr: 0x10001E908, symSize: 0x4B8 }
  - { offset: 0x116470, size: 0x8, addend: 0x0, symName: __ZN6garaza7StorageImE8containsEm, symObjAddr: 0x1DA60, symBinAddr: 0x10001EDC0, symSize: 0xE0 }
  - { offset: 0x1164AE, size: 0x8, addend: 0x0, symName: __ZN6garaza7StorageImE8containsEm, symObjAddr: 0x1DA60, symBinAddr: 0x10001EDC0, symSize: 0xE0 }
  - { offset: 0x1165F1, size: 0x8, addend: 0x0, symName: __ZN6garaza7StorageImE5all_iEv, symObjAddr: 0x1DB40, symBinAddr: 0x10001EEA0, symSize: 0x1E0 }
  - { offset: 0x116C77, size: 0x8, addend: 0x0, symName: __ZN5boost4json5value14set_at_pointerENS_4core17basic_string_viewIcEENS0_9value_refERNS_6system10error_codeERKNS0_19set_pointer_optionsE, symObjAddr: 0x215E0, symBinAddr: 0x100022940, symSize: 0xE8 }
  - { offset: 0x116E92, size: 0x8, addend: 0x0, symName: __ZNSt6vectorIdSaIdEE17_M_realloc_appendIJRKdEEEvDpOT_, symObjAddr: 0x22210, symBinAddr: 0x100023570, symSize: 0xF4 }
  - { offset: 0x117203, size: 0x8, addend: 0x0, symName: __ZN6garaza7StorageIN5tante6NeuronEE2atEm, symObjAddr: 0x22304, symBinAddr: 0x100023664, symSize: 0xE0 }
  - { offset: 0x117404, size: 0x8, addend: 0x0, symName: __ZN6garaza7StorageIN5tante10ConnectionEE2atEm, symObjAddr: 0x223E4, symBinAddr: 0x100023744, symSize: 0xDC }
  - { offset: 0x117601, size: 0x8, addend: 0x0, symName: __ZN8grafiins5GraphIN5tante6NeuronENS1_10ConnectionEE11remove_edgeEm.isra.0, symObjAddr: 0x224C0, symBinAddr: 0x100023820, symSize: 0x1E8 }
  - { offset: 0x1177DC, size: 0x8, addend: 0x0, symName: __ZN8grafiins5GraphIN5tante6NeuronENS1_10ConnectionEE14out_vertices_iEm, symObjAddr: 0x226A8, symBinAddr: 0x100023A08, symSize: 0x2D8 }
  - { offset: 0x11807D, size: 0x8, addend: 0x0, symName: __ZN6garaza7StorageIN5tante6NeuronEE5all_iEv, symObjAddr: 0x23EC0, symBinAddr: 0x100025220, symSize: 0x1F0 }
  - { offset: 0x118703, size: 0x8, addend: 0x0, symName: __ZN6garaza7StorageIN5tante10ConnectionEE5all_iEv, symObjAddr: 0x240B0, symBinAddr: 0x100025410, symSize: 0x1F0 }
  - { offset: 0x118D89, size: 0x8, addend: 0x0, symName: __ZNSt7__cxx1112basic_stringIcSt11char_traitsIcESaIcEE10_M_replaceEmmPKcm, symObjAddr: 0x24F0C, symBinAddr: 0x10002626C, symSize: 0x19C }
  - { offset: 0x1190A0, size: 0x8, addend: 0x0, symName: __ZN5tante10Connection9serializeB5cxx11Ev, symObjAddr: 0x250A8, symBinAddr: 0x100026408, symSize: 0x2F8 }
  - { offset: 0x119E06, size: 0x8, addend: 0x0, symName: __ZN5boost4json6detail5stack3popINS0_12basic_parserINS1_7handlerEE5stateEEEvRT_, symObjAddr: 0x29364, symBinAddr: 0x10002A6C4, symSize: 0x48 }
  - { offset: 0x119E3E, size: 0x8, addend: 0x0, symName: __ZNSt6vectorImSaImEE17_M_realloc_appendIJRKmEEEvDpOT_, symObjAddr: 0x2952C, symBinAddr: 0x10002A88C, symSize: 0xF4 }
  - { offset: 0x11A1AF, size: 0x8, addend: 0x0, symName: __ZN5tante7Network10_add_inputEv, symObjAddr: 0x29620, symBinAddr: 0x10002A980, symSize: 0x6F0 }
  - { offset: 0x11BAA7, size: 0x8, addend: 0x0, symName: __ZN5boost4json12basic_parserINS0_6detail7handlerEE13parse_literalILi4EEEPKcS7_St17integral_constantIiXT_EE.isra.0, symObjAddr: 0x2A420, symBinAddr: 0x10002B780, symSize: 0xF0 }
  - { offset: 0x11BBF4, size: 0x8, addend: 0x0, symName: __ZN5boost4json12basic_parserINS0_6detail7handlerEE13parse_literalILin1EEEPKcS7_St17integral_constantIiXT_EE.isra.0, symObjAddr: 0x2A510, symBinAddr: 0x10002B870, symSize: 0x2F0 }
  - { offset: 0x11C13B, size: 0x8, addend: 0x0, symName: __ZN5boost4json12basic_parserINS0_6detail7handlerEE13parse_literalILi5EEEPKcS7_St17integral_constantIiXT_EE.isra.0, symObjAddr: 0x2A800, symBinAddr: 0x10002BB60, symSize: 0xE8 }
  - { offset: 0x11C288, size: 0x8, addend: 0x0, symName: __ZN5boost4json12basic_parserINS0_6detail7handlerEE13parse_literalILi3EEEPKcS7_St17integral_constantIiXT_EE.isra.0, symObjAddr: 0x2A8E8, symBinAddr: 0x10002BC48, symSize: 0xE0 }
  - { offset: 0x11C3D9, size: 0x8, addend: 0x0, symName: __ZN5boost4json12basic_parserINS0_6detail7handlerEE13parse_literalILi2EEEPKcS7_St17integral_constantIiXT_EE.isra.0, symObjAddr: 0x2A9C8, symBinAddr: 0x10002BD28, symSize: 0x15C }
  - { offset: 0x11C734, size: 0x8, addend: 0x0, symName: __ZN5boost4json12basic_parserINS0_6detail7handlerEE13parse_literalILi1EEEPKcS7_St17integral_constantIiXT_EE.isra.0, symObjAddr: 0x2AB24, symBinAddr: 0x10002BE84, symSize: 0x148 }
  - { offset: 0x11CA93, size: 0x8, addend: 0x0, symName: __ZN5boost4json12basic_parserINS0_6detail7handlerEE13parse_literalILi0EEEPKcS7_St17integral_constantIiXT_EE.isra.0, symObjAddr: 0x2AC6C, symBinAddr: 0x10002BFCC, symSize: 0x13C }
  - { offset: 0x11CDCC, size: 0x8, addend: 0x0, symName: __ZN5boost4json12basic_parserINS0_6detail7handlerEE13parse_commentILb0EEEPKcS7_St17integral_constantIbXT_EEb.isra.0, symObjAddr: 0x2ADA8, symBinAddr: 0x10002C108, symSize: 0x1C8 }
  - { offset: 0x11D099, size: 0x8, addend: 0x0, symName: __ZN5boost4json12basic_parserINS0_6detail7handlerEE13parse_commentILb1EEEPKcS7_St17integral_constantIbXT_EEb.isra.0, symObjAddr: 0x2AF70, symBinAddr: 0x10002C2D0, symSize: 0x198 }
  - { offset: 0x11D310, size: 0x8, addend: 0x0, symName: __ZN5boost4json6detail8charconv10from_charsEPKcS4_RdNS2_12chars_formatE, symObjAddr: 0x2BB80, symBinAddr: 0x10002CEE0, symSize: 0x2E8 }
  - { offset: 0x11D649, size: 0x8, addend: 0x0, symName: __ZNSt6vectorISt8functionIFvRN5lapsa7ContextI7MyStateEEEESaIS7_EE13_M_assign_auxIPKS7_EEvT_SD_St20forward_iterator_tag.isra.0, symObjAddr: 0x2BF60, symBinAddr: 0x10002D2C0, symSize: 0x320 }
  - { offset: 0x11E443, size: 0x8, addend: 0x0, symName: __ZN5boost11hash_detail10hash_rangeIPKcEENSt9enable_ifIXaaaasrNS0_12is_char_typeINSt15iterator_traitsIT_E10value_typeEEE5valuesrSt7is_sameINS8_17iterator_categoryESt26random_access_iterator_tagE5valuegtL_ZNSt14numeric_limitsImE6digitsEELi32EEmE4typeEmS7_S7_, symObjAddr: 0x2C46C, symBinAddr: 0x10002D7CC, symSize: 0x134 }
  - { offset: 0x11E606, size: 0x8, addend: 0x0, symName: __ZN5boost4json6detail15hash_value_implERKNS0_5valueE, symObjAddr: 0x2C5A0, symBinAddr: 0x10002D900, symSize: 0x270 }
  - { offset: 0x11E63C, size: 0x8, addend: 0x0, symName: __ZN5boost4json6detail15hash_value_implERKNS0_5valueE, symObjAddr: 0x2C5A0, symBinAddr: 0x10002D900, symSize: 0x270 }
  - { offset: 0x11F10F, size: 0x8, addend: 0x0, symName: __ZN5boost10hash_valueINS_4json6objectEEENSt9enable_ifIXsrNS_14container_hash18is_unordered_rangeIT_EE5valueEmE4typeERKS6_.isra.0, symObjAddr: 0x2C810, symBinAddr: 0x10002DB70, symSize: 0x220 }
  - { offset: 0x11F12D, size: 0x8, addend: 0x0, symName: __ZN5boost10hash_valueINS_4json6objectEEENSt9enable_ifIXsrNS_14container_hash18is_unordered_rangeIT_EE5valueEmE4typeERKS6_.isra.0, symObjAddr: 0x2C810, symBinAddr: 0x10002DB70, symSize: 0x220 }
  - { offset: 0x11F728, size: 0x8, addend: 0x0, symName: __ZN5tante7Network20dfs_calculate_signalEmRSt3setImSt4lessImESaImEERSt3mapImdS3_SaISt4pairIKmdEEE, symObjAddr: 0x2CEC8, symBinAddr: 0x10002E228, symSize: 0x498 }
  - { offset: 0x12033D, size: 0x8, addend: 0x0, symName: __ZN10rododendrs5rnd01Ev, symObjAddr: 0x2D360, symBinAddr: 0x10002E6C0, symSize: 0xE8 }
  - { offset: 0x120355, size: 0x8, addend: 0x0, symName: __ZN10rododendrs5rnd01Ev, symObjAddr: 0x2D360, symBinAddr: 0x10002E6C0, symSize: 0xE8 }
  - { offset: 0x120380, size: 0x8, addend: 0x0, symName: __ZN10rododendrs5rnd01Ev, symObjAddr: 0x2D360, symBinAddr: 0x10002E6C0, symSize: 0xE8 }
  - { offset: 0x1203A5, size: 0x8, addend: 0x0, symName: __ZN10rododendrs5rnd01Ev, symObjAddr: 0x2D360, symBinAddr: 0x10002E6C0, symSize: 0xE8 }
  - { offset: 0x1203D4, size: 0x8, addend: 0x0, symName: __ZN10rododendrs5rnd01Ev, symObjAddr: 0x2D360, symBinAddr: 0x10002E6C0, symSize: 0xE8 }
  - { offset: 0x120592, size: 0x8, addend: 0x0, symName: __ZN10rododendrs12rnd_in_rangeEdd, symObjAddr: 0x2DBC0, symBinAddr: 0x10002EF20, symSize: 0x180 }
  - { offset: 0x12083D, size: 0x8, addend: 0x0, symName: __ZN7MyState9randomizeEv, symObjAddr: 0x2FD04, symBinAddr: 0x100031064, symSize: 0x3C }
  - { offset: 0x120888, size: 0x8, addend: 0x0, symName: __ZN7MyState6changeEv, symObjAddr: 0x2FDA0, symBinAddr: 0x100031100, symSize: 0x460 }
  - { offset: 0x1216E3, size: 0x8, addend: 0x0, symName: __ZN5lapsa10update_logI7MyStateEEvRNS_7ContextIT_EE, symObjAddr: 0x32324, symBinAddr: 0x100033684, symSize: 0x124 }
  - { offset: 0x1219B8, size: 0x8, addend: 0x0, symName: __ZN5boost4json6detail6bufferILm256EE6appendEPKcm, symObjAddr: 0x328A0, symBinAddr: 0x100033C00, symSize: 0x68 }
  - { offset: 0x1219EF, size: 0x8, addend: 0x0, symName: __ZN5boost4json12basic_parserINS0_6detail7handlerEE13parse_escapedILb0EEEPKcS7_mSt17integral_constantIbXT_EEbb.isra.0, symObjAddr: 0x32908, symBinAddr: 0x100033C68, symSize: 0x11F8 }
  - { offset: 0x122F11, size: 0x8, addend: 0x0, symName: __ZN5boost4json12basic_parserINS0_6detail7handlerEE15parse_unescapedILb0ELb1EEEPKcS7_St17integral_constantIbXT_EES8_IbXT0_EEb.isra.0, symObjAddr: 0x33B00, symBinAddr: 0x100034E60, symSize: 0x320 }
  - { offset: 0x1233F0, size: 0x8, addend: 0x0, symName: __ZN5boost4json12basic_parserINS0_6detail7handlerEE15parse_unescapedILb0ELb0EEEPKcS7_St17integral_constantIbXT_EES8_IbXT0_EEb.isra.0, symObjAddr: 0x33E20, symBinAddr: 0x100035180, symSize: 0x320 }
  - { offset: 0x1238CF, size: 0x8, addend: 0x0, symName: __ZN5boost4json12basic_parserINS0_6detail7handlerEE13parse_escapedILb1EEEPKcS7_mSt17integral_constantIbXT_EEbb.isra.0, symObjAddr: 0x34140, symBinAddr: 0x1000354A0, symSize: 0x18A4 }
  - { offset: 0x124CE2, size: 0x8, addend: 0x0, symName: __ZN5boost4json12basic_parserINS0_6detail7handlerEE15parse_unescapedILb1ELb1EEEPKcS7_St17integral_constantIbXT_EES8_IbXT0_EEb.isra.0, symObjAddr: 0x359E4, symBinAddr: 0x100036D44, symSize: 0x3E4 }
  - { offset: 0x1252D2, size: 0x8, addend: 0x0, symName: __ZN5boost4json12basic_parserINS0_6detail7handlerEE15parse_unescapedILb1ELb0EEEPKcS7_St17integral_constantIbXT_EES8_IbXT0_EEb.isra.0, symObjAddr: 0x35DC8, symBinAddr: 0x100037128, symSize: 0x3E0 }
  - { offset: 0x1258C2, size: 0x8, addend: 0x0, symName: __ZN5boost4json12basic_parserINS0_6detail7handlerEE12parse_numberILb0ELc0ELNS0_16number_precisionE2EEEPKcS8_St17integral_constantIbXT_EES9_IcXT0_EES9_IS6_XT1_EE.isra.0, symObjAddr: 0x37100, symBinAddr: 0x100038460, symSize: 0xB28 }
  - { offset: 0x126264, size: 0x8, addend: 0x0, symName: __ZN5boost4json12basic_parserINS0_6detail7handlerEE12parse_numberILb0ELc0ELNS0_16number_precisionE0EEEPKcS8_St17integral_constantIbXT_EES9_IcXT0_EES9_IS6_XT1_EE.isra.0, symObjAddr: 0x37C28, symBinAddr: 0x100038F88, symSize: 0xD58 }
  - { offset: 0x126CD1, size: 0x8, addend: 0x0, symName: __ZN5boost4json12basic_parserINS0_6detail7handlerEE12parse_numberILb1ELc43ELNS0_16number_precisionE2EEEPKcS8_St17integral_constantIbXT_EES9_IcXT0_EES9_IS6_XT1_EE.isra.0, symObjAddr: 0x38980, symBinAddr: 0x100039CE0, symSize: 0x880 }
  - { offset: 0x127521, size: 0x8, addend: 0x0, symName: __ZN5boost4json12basic_parserINS0_6detail7handlerEE12parse_numberILb1ELc43ELNS0_16number_precisionE0EEEPKcS8_St17integral_constantIbXT_EES9_IcXT0_EES9_IS6_XT1_EE.isra.0, symObjAddr: 0x39200, symBinAddr: 0x10003A560, symSize: 0xD4C }
  - { offset: 0x127E58, size: 0x8, addend: 0x0, symName: __ZN5boost4json12basic_parserINS0_6detail7handlerEE12parse_numberILb1ELc45ELNS0_16number_precisionE2EEEPKcS8_St17integral_constantIbXT_EES9_IcXT0_EES9_IS6_XT1_EE.isra.0, symObjAddr: 0x39F4C, symBinAddr: 0x10003B2AC, symSize: 0x894 }
  - { offset: 0x128666, size: 0x8, addend: 0x0, symName: __ZN5boost4json12basic_parserINS0_6detail7handlerEE12parse_numberILb1ELc45ELNS0_16number_precisionE0EEEPKcS8_St17integral_constantIbXT_EES9_IcXT0_EES9_IS6_XT1_EE.isra.0, symObjAddr: 0x3A7E0, symBinAddr: 0x10003BB40, symSize: 0xE70 }
  - { offset: 0x129063, size: 0x8, addend: 0x0, symName: __ZN5boost4json12basic_parserINS0_6detail7handlerEE12parse_numberILb1ELc48ELNS0_16number_precisionE2EEEPKcS8_St17integral_constantIbXT_EES9_IcXT0_EES9_IS6_XT1_EE.isra.0, symObjAddr: 0x3B650, symBinAddr: 0x10003C9B0, symSize: 0x510 }
  - { offset: 0x129692, size: 0x8, addend: 0x0, symName: __ZN5boost4json12basic_parserINS0_6detail7handlerEE12parse_numberILb1ELc48ELNS0_16number_precisionE0EEEPKcS8_St17integral_constantIbXT_EES9_IcXT0_EES9_IS6_XT1_EE.isra.0, symObjAddr: 0x3BB60, symBinAddr: 0x10003CEC0, symSize: 0x900 }
  - { offset: 0x129D9B, size: 0x8, addend: 0x0, symName: __ZN5boost4json6detail10sbo_bufferILm34EE6appendEPKcm, symObjAddr: 0x3C460, symBinAddr: 0x10003D7C0, symSize: 0x120 }
  - { offset: 0x129F00, size: 0x8, addend: 0x0, symName: __ZN5boost4json12basic_parserINS0_6detail7handlerEE12parse_numberILb0ELc0ELNS0_16number_precisionE1EEEPKcS8_St17integral_constantIbXT_EES9_IcXT0_EES9_IS6_XT1_EE.isra.0, symObjAddr: 0x3C580, symBinAddr: 0x10003D8E0, symSize: 0xD60 }
  - { offset: 0x12AB31, size: 0x8, addend: 0x0, symName: __ZN5boost4json12basic_parserINS0_6detail7handlerEE12parse_numberILb1ELc43ELNS0_16number_precisionE1EEEPKcS8_St17integral_constantIbXT_EES9_IcXT0_EES9_IS6_XT1_EE.isra.0, symObjAddr: 0x3D2E0, symBinAddr: 0x10003E640, symSize: 0xD30 }
  - { offset: 0x12B618, size: 0x8, addend: 0x0, symName: __ZN5boost4json12basic_parserINS0_6detail7handlerEE12parse_numberILb1ELc45ELNS0_16number_precisionE1EEEPKcS8_St17integral_constantIbXT_EES9_IcXT0_EES9_IS6_XT1_EE.isra.0, symObjAddr: 0x3E010, symBinAddr: 0x10003F370, symSize: 0xE98 }
  - { offset: 0x12C1BB, size: 0x8, addend: 0x0, symName: __ZN5boost4json12basic_parserINS0_6detail7handlerEE12parse_numberILb1ELc48ELNS0_16number_precisionE1EEEPKcS8_St17integral_constantIbXT_EES9_IcXT0_EES9_IS6_XT1_EE.isra.0, symObjAddr: 0x3EEA8, symBinAddr: 0x100040208, symSize: 0x900 }
  - { offset: 0x12C9B1, size: 0x8, addend: 0x0, symName: __ZN5boost4json12basic_parserINS0_6detail7handlerEE11parse_valueILb1ELb1EEEPKcS7_St17integral_constantIbXT_EES8_IbXT0_EEbb.isra.0, symObjAddr: 0x3F7A8, symBinAddr: 0x100040B08, symSize: 0x318 }
  - { offset: 0x12CC8A, size: 0x8, addend: 0x0, symName: __ZN5boost4json12basic_parserINS0_6detail7handlerEE11parse_arrayILb1ELb1EEEPKcS7_St17integral_constantIbXT_EES8_IbXT0_EEbb.isra.0, symObjAddr: 0x3FAC0, symBinAddr: 0x100040E20, symSize: 0x368 }
  - { offset: 0x12D037, size: 0x8, addend: 0x0, symName: __ZN5boost4json12basic_parserINS0_6detail7handlerEE12parse_objectILb1ELb1EEEPKcS7_St17integral_constantIbXT_EES8_IbXT0_EEbb.isra.0, symObjAddr: 0x3FE28, symBinAddr: 0x100041188, symSize: 0x558 }
  - { offset: 0x12D562, size: 0x8, addend: 0x0, symName: __ZN5boost4json12basic_parserINS0_6detail7handlerEE11parse_valueILb1ELb0EEEPKcS7_St17integral_constantIbXT_EES8_IbXT0_EEbb.isra.0, symObjAddr: 0x40380, symBinAddr: 0x1000416E0, symSize: 0x200 }
  - { offset: 0x12D848, size: 0x8, addend: 0x0, symName: __ZN5boost4json12basic_parserINS0_6detail7handlerEE11parse_arrayILb1ELb0EEEPKcS7_St17integral_constantIbXT_EES8_IbXT0_EEbb.isra.0, symObjAddr: 0x40580, symBinAddr: 0x1000418E0, symSize: 0x2C4 }
  - { offset: 0x12DB64, size: 0x8, addend: 0x0, symName: __ZN5boost4json12basic_parserINS0_6detail7handlerEE12parse_objectILb1ELb0EEEPKcS7_St17integral_constantIbXT_EES8_IbXT0_EEbb.isra.0, symObjAddr: 0x40844, symBinAddr: 0x100041BA4, symSize: 0x420 }
  - { offset: 0x12DFD2, size: 0x8, addend: 0x0, symName: __ZN5boost4json12basic_parserINS0_6detail7handlerEE11parse_valueILb0ELb0EEEPKcS7_St17integral_constantIbXT_EES8_IbXT0_EEbb.isra.0, symObjAddr: 0x40C64, symBinAddr: 0x100041FC4, symSize: 0xD9C }
  - { offset: 0x12F14B, size: 0x8, addend: 0x0, symName: __ZN5boost4json12basic_parserINS0_6detail7handlerEE11parse_valueILb0ELb1EEEPKcS7_St17integral_constantIbXT_EES8_IbXT0_EEbb.isra.0, symObjAddr: 0x41A00, symBinAddr: 0x100042D60, symSize: 0xE00 }
  - { offset: 0x13030B, size: 0x8, addend: 0x0, symName: __ZN5boost4json6parser10write_someEPKcmRNS_6system10error_codeE, symObjAddr: 0x42E20, symBinAddr: 0x100044180, symSize: 0x60 }
  - { offset: 0x1303D1, size: 0x8, addend: 0x0, symName: __ZN5boost4json13stream_parser10write_someEPKcmRNS_6system10error_codeE, symObjAddr: 0x42E80, symBinAddr: 0x1000441E0, symSize: 0x20 }
  - { offset: 0x130416, size: 0x8, addend: 0x0, symName: __ZN5boost4json13stream_parser5writeEPKcmRNS_6system10error_codeE, symObjAddr: 0x42FC0, symBinAddr: 0x100044320, symSize: 0x90 }
  - { offset: 0x130652, size: 0x8, addend: 0x0, symName: __ZN5boost4json13stream_parser6finishERNS_6system10error_codeE, symObjAddr: 0x43150, symBinAddr: 0x1000444B0, symSize: 0x14 }
  - { offset: 0x130683, size: 0x8, addend: 0x0, symName: __ZN5boost4json13stream_parser6finishEv, symObjAddr: 0x43164, symBinAddr: 0x1000444C4, symSize: 0x7C }
  - { offset: 0x1307CD, size: 0x8, addend: 0x0, symName: __ZN5boost4json6parser5writeEPKcmRNS_6system10error_codeE, symObjAddr: 0x43260, symBinAddr: 0x1000445C0, symSize: 0xAC }
  - { offset: 0x130A3B, size: 0x8, addend: 0x0, symName: __ZN7iestade16size_t_from_jsonERKNSt7__cxx1112basic_stringIcSt11char_traitsIcESaIcEEES7_bm, symObjAddr: 0x44720, symBinAddr: 0x100045A80, symSize: 0x140 }
  - { offset: 0x130B5A, size: 0x8, addend: 0x0, symName: __ZN7iestade16size_t_from_jsonERKNSt7__cxx1112basic_stringIcSt11char_traitsIcESaIcEEES7_bm.constprop.0, symObjAddr: 0x44AAC, symBinAddr: 0x100045E0C, symSize: 0x114 }
  - { offset: 0x130C77, size: 0x8, addend: 0x0, symName: __ZN5boost4json13stream_parser7releaseEv, symObjAddr: 0x45F60, symBinAddr: 0x1000472C0, symSize: 0x18C }
...
